(dp0
S'adjudicator 2015 \n'
p1
(dp2
S'intents'
p3
(lp4
(dp5
S'query'
p6
g1
sS'score'
p7
F0.267477185
sS'intent'
p8
VNone
p9
sassS'POSITIONS OF  \n'
p10
(dp11
S'intents'
p12
(lp13
(dp14
S'query'
p15
g10
sS'score'
p16
F0.3236839
sS'intent'
p17
VNone
p18
sassS'Mona Bhide \n'
p19
(dp20
S'intents'
p21
(lp22
(dp23
S'query'
p24
g19
sS'score'
p25
F0.251213938
sS'intent'
p26
VNone
p27
sassS'Aggregate \n'
p28
(dp29
S'intents'
p30
(lp31
(dp32
S'query'
p33
g28
sS'score'
p34
F0.191661969
sS'intent'
p35
VEducation
p36
sassS', Ahmedabad'
p37
(dp38
S'intents'
p39
(lp40
(dp41
S'query'
p42
g37
sS'score'
p43
F0.2507922
sS'intent'
p44
VNone
p45
sassS'        ACADEMIC ACHIEVEMENTS \n'
p46
(dp47
S'intents'
p48
(lp49
(dp50
S'query'
p51
g46
sS'score'
p52
F0.318461061
sS'intent'
p53
Vskills
p54
sassS'& Partners, Mumbai \n'
p55
(dp56
S'intents'
p57
(lp58
(dp59
S'query'
p60
g55
sS'score'
p61
F0.562578
sS'intent'
p62
VNone
p63
sassS'7.42   2nd \n'
p64
(dp65
S'intents'
p66
(lp67
(dp68
S'query'
p69
g64
sS'score'
p70
F0.446402848
sS'intent'
p71
VNone
p72
sassS'Contract Law'
p73
(dp74
S'intents'
p75
(lp76
(dp77
S'query'
p78
g73
sS'score'
p79
F0.225914374
sS'intent'
p80
VNone
p81
sassS'   Jan, 2016 \n'
p82
(dp83
S'intents'
p84
(lp85
(dp86
S'query'
p87
g82
sS'score'
p88
F0.3179314
sS'intent'
p89
VNone
p90
sassS'CURRENT'
p91
(dp92
S'intents'
p93
(lp94
(dp95
S'query'
p96
g91
sS'score'
p97
F0.169131368
sS'intent'
p98
VEducation
p99
sassS'Preferred Practice Area: Corporate \n'
p100
(dp101
S'intents'
p102
(lp103
(dp104
S'query'
p105
g100
sS'score'
p106
F0.3370387
sS'intent'
p107
VNone
p108
sassS'POSITION OF RESPONSIBILITIES \n'
p109
(dp110
S'intents'
p111
(lp112
(dp113
S'query'
p114
g109
sS'score'
p115
F0.251621664
sS'intent'
p116
Vskills
p117
sassS'PREVIOUS INTERNSHIPS \n'
p118
(dp119
S'intents'
p120
(lp121
(dp122
S'query'
p123
g118
sS'score'
p124
F0.645126
sS'intent'
p125
VInternship
p126
sassS'WORLD WIDE FUND FOR NATURE, KOLKATA \n'
p127
(dp128
S'intents'
p129
(lp130
(dp131
S'query'
p132
g127
sS'score'
p133
F0.53433603
sS'intent'
p134
VNone
p135
sassS'EXTRA CURRICULAR ACTIVITIES \n'
p136
(dp137
S'intents'
p138
(lp139
(dp140
S'query'
p141
g136
sS'score'
p142
F0.9009125
sS'intent'
p143
VextraCurricular
p144
sassS'Corporate Office, \n'
p145
(dp146
g57
(lp147
(dp148
g60
g145
sg61
F0.3306259
sg62
VNone
p149
sassS'Literary and Debating Achievements: \n'
p150
(dp151
S'intents'
p152
(lp153
(dp154
S'query'
p155
g150
sS'score'
p156
F0.2871537
sS'intent'
p157
VNone
p158
sassS'MOBILE:'
p159
(dp160
g75
(lp161
(dp162
g78
g159
sg79
F0.283660054
sg80
Vskills
p163
sassS'INTEREST :'
p164
(dp165
g93
(lp166
(dp167
g96
g164
sg97
F0.301810324
sg98
VInterests
p168
sassS'ADDITIONAL ACADEMIC COURSES: \n'
p169
(dp170
S'intents'
p171
(lp172
(dp173
S'query'
p174
g169
sS'score'
p175
F0.240063742
sS'intent'
p176
VNone
p177
sassS'Institution \n'
p178
(dp179
S'intents'
p180
(lp181
(dp182
S'query'
p183
g178
sS'score'
p184
F0.169131368
sS'intent'
p185
VEducation
p186
sassS'December,2016) \n'
p187
(dp188
S'intents'
p189
(lp190
(dp191
S'query'
p192
g187
sS'score'
p193
F0.382487446
sS'intent'
p194
VNone
p195
sassS'PERCENTAGE  \n'
p196
(dp197
S'intents'
p198
(lp199
(dp200
S'query'
p201
g196
sS'score'
p202
F0.191661969
sS'intent'
p203
VEducation
p204
sassS'PUBLICATIONS AND PAPER PRESENTATIONS \n'
p205
(dp206
S'intents'
p207
(lp208
(dp209
S'query'
p210
g205
sS'score'
p211
F0.318437636
sS'intent'
p212
VNone
p213
sassS'at the state level'
p214
(dp215
g75
(lp216
(dp217
g78
g214
sg79
F0.324501246
sg80
VNone
p218
sassS'INTERESTS AND HOBBIES: \n'
p219
(dp220
S'intents'
p221
(lp222
(dp223
S'query'
p224
g219
sS'score'
p225
F0.295655042
sS'intent'
p226
Vskills
p227
sassS'LBS, RK PURAM, \n'
p228
(dp229
S'intents'
p230
(lp231
(dp232
S'query'
p233
g228
sS'score'
p234
F0.457820624
sS'intent'
p235
VNone
p236
sassS'Contact No. +91-9999257168 \n'
p237
(dp238
S'intents'
p239
(lp240
(dp241
S'query'
p242
g237
sS'score'
p243
F0.561181
sS'intent'
p244
VNone
p245
sassS'Contact No- 9545367593/ 9561908858 \n'
p246
(dp247
S'intents'
p248
(lp249
(dp250
S'query'
p251
g246
sS'score'
p252
F0.4624939
sS'intent'
p253
VNone
p254
sassS'Educational Qualifications: \n'
p255
(dp256
S'intents'
p257
(lp258
(dp259
S'query'
p260
g255
sS'score'
p261
F0.8165061
sS'intent'
p262
VEducation
p263
sassS'Job Portfolio: \n'
p264
(dp265
S'intents'
p266
(lp267
(dp268
S'query'
p269
g264
sS'score'
p270
F0.183979437
sS'intent'
p271
VNone
p272
sassS'ADDITIONAL QUALIFICATION/COURSES \n'
p273
(dp274
S'intents'
p275
(lp276
(dp277
S'query'
p278
g273
sS'score'
p279
F0.2684485
sS'intent'
p280
VEducation
p281
sassS'EDUCATIONAL QUALIFICATIONS       \n'
p282
(dp283
S'intents'
p284
(lp285
(dp286
S'query'
p287
g282
sS'score'
p288
F0.9161362
sS'intent'
p289
VEducation
p290
sassS'DR. ARMIN ROSENCRANZ,'
p291
(dp292
S'intents'
p293
(lp294
(dp295
S'query'
p296
g291
sS'score'
p297
F0.5866041
sS'intent'
p298
VNone
p299
sassS' Responsibilities:  \n'
p300
(dp301
g248
(lp302
(dp303
g251
g300
sg252
F0.170412421
sg253
Vskills
p304
sassS'Professor of Law and Public P'
p305
(dp306
g293
(lp307
(dp308
g296
g305
sg297
F0.589518666
sg298
VNone
p309
sassS'(November-December, 2015: 4 weeks ) \n'
p310
(dp311
S'intents'
p312
(lp313
(dp314
S'query'
p315
g310
sS'score'
p316
F0.57529974
sS'intent'
p317
VNone
p318
sassS'INTERNSHIPS  \n'
p319
(dp320
S'intents'
p321
(lp322
(dp323
S'query'
p324
g319
sS'score'
p325
F0.551209867
sS'intent'
p326
VInternship
p327
sassS'Course: \n'
p328
(dp329
S'intents'
p330
(lp331
(dp332
S'query'
p333
g328
sS'score'
p334
F0.2407914
sS'intent'
p335
Vskills
p336
sassS'Apeksha Gupta \n'
p337
(dp338
S'intents'
p339
(lp340
(dp341
S'query'
p342
g337
sS'score'
p343
F0.24598971
sS'intent'
p344
VNone
p345
sassS'was prepared. \n'
p346
(dp347
S'intents'
p348
(lp349
(dp350
S'query'
p351
g346
sS'score'
p352
F0.3224647
sS'intent'
p353
VNone
p354
sassS'JSS College'
p355
(dp356
g75
(lp357
(dp358
g78
g355
sg79
F0.209128141
sg80
VNone
p359
sassS'Place: Jaipur/ Mumbai  \n'
p360
(dp361
S'intents'
p362
(lp363
(dp364
S'query'
p365
g360
sS'score'
p366
F0.3645042
sS'intent'
p367
VNone
p368
sassS'INTERNSHIPS: \n'
p369
(dp370
S'intents'
p371
(lp372
(dp373
S'query'
p374
g369
sS'score'
p375
F0.4639962
sS'intent'
p376
VInternship
p377
sassS'[October - November, 2015: 4 weeks]'
p378
(dp379
S'intents'
p380
(lp381
(dp382
S'query'
p383
g378
sS'score'
p384
F0.576932669
sS'intent'
p385
VNone
p386
sassS'Course  \n'
p387
(dp388
g348
(lp389
(dp390
g351
g387
sg352
F0.169131368
sg353
VEducation
p391
sassS'Siboney S Sagar \n'
p392
(dp393
g138
(lp394
(dp395
g141
g392
sg142
F0.317044973
sg143
VNone
p396
sassS'Competencies \n'
p397
(dp398
g362
(lp399
(dp400
g365
g397
sg366
F0.502055764
sg367
VNone
p401
sassS'Papers/Conferences/Seminars \n'
p402
(dp403
S'intents'
p404
(lp405
(dp406
S'query'
p407
g402
sS'score'
p408
F0.276634216
sS'intent'
p409
VNone
p410
sassS'University \n'
p411
(dp412
g348
(lp413
(dp414
g351
g411
sg352
F0.169131368
sg353
VEducation
p415
sassS'Duration: 1st June- 28th June, 2016\n'
p416
(dp417
S'intents'
p418
(lp419
(dp420
S'query'
p421
g416
sS'score'
p422
F0.5373362
sS'intent'
p423
VNone
p424
sassS'Attained The Bronze Standard\n'
p425
(dp426
S'intents'
p427
(lp428
(dp429
S'query'
p430
g425
sS'score'
p431
F0.384392053
sS'intent'
p432
VNone
p433
sassS'C.G.P.A 3.732 on 4.0 \n'
p434
(dp435
g284
(lp436
(dp437
g287
g434
sg288
F0.77420485
sg289
VNone
p438
sassS'COURSES/ \n'
p439
(dp440
g84
(lp441
(dp442
g87
g439
sg88
F0.158369035
sg89
VNone
p443
sassS'3.  Human Rights Law Network, Delhi \n'
p444
(dp445
S'intents'
p446
(lp447
(dp448
S'query'
p449
g444
sS'score'
p450
F0.701809168
sS'intent'
p451
VNone
p452
sassS'Address: 2/1 A, Nando'
p453
(dp454
S'intents'
p455
(lp456
(dp457
S'query'
p458
g453
sS'score'
p459
F0.525890648
sS'intent'
p460
VNone
p461
sassS'[April-May, 2015: 4 Weeks] \n'
p462
(dp463
g207
(lp464
(dp465
g210
g462
sg211
F0.569754958
sg212
VNone
p466
sassS'P/O Village Madhabandha, \n'
p467
(dp468
S'intents'
p469
(lp470
(dp471
S'query'
p472
g467
sS'score'
p473
F0.5279706
sS'intent'
p474
VNone
p475
sassS'Degree (B.B.A LL.B/B.A LL.B.) \n'
p476
(dp477
g284
(lp478
(dp479
g287
g476
sg288
F0.8173319
sg289
VNone
p480
sassS' Objective \n'
p481
(dp482
S'intents'
p483
(lp484
(dp485
S'query'
p486
g481
sS'score'
p487
F0.169131368
sS'intent'
p488
VEducation
p489
sassS'WORK EXPERIENCE/ INTERNSHIP \n'
p490
(dp491
S'intents'
p492
(lp493
(dp494
S'query'
p495
g490
sS'score'
p496
F0.5199556
sS'intent'
p497
VworkExperience
p498
sassS'MOCK TRIAL EXPERIENCE'
p499
(dp500
S'intents'
p501
(lp502
(dp503
S'query'
p504
g499
sS'score'
p505
F0.168543115
sS'intent'
p506
VNone
p507
sassS'DIKSHA MATHUR'
p508
(dp509
g501
(lp510
(dp511
g504
g508
sg505
F0.23551859
sg506
VNone
p512
sassS'DECLARATION'
p513
(dp514
g75
(lp515
(dp516
g78
g513
sg79
F0.169131368
sg80
VEducation
p517
sassS'EDUCATION & CERTIFICATION \n'
p518
(dp519
g102
(lp520
(dp521
g105
g518
sg106
F0.242867425
sg107
VNone
p522
sassS'2011 (88.2%)            2009 (82.6%) \n'
p523
(dp524
S'intents'
p525
(lp526
(dp527
S'query'
p528
g523
sS'score'
p529
F0.756433249
sS'intent'
p530
VNone
p531
sassS'OTHER ACHIEVEMENTS \n'
p532
(dp533
g21
(lp534
(dp535
g24
g532
sg25
F0.5648632
sg26
Vskills
p536
sassS'  Secured: 94.8% \n'
p537
(dp538
S'intents'
p539
(lp540
(dp541
S'query'
p542
g537
sS'score'
p543
F0.430367559
sS'intent'
p544
VNone
p545
sassS'May, 2015: 10 months]'
p546
(dp547
S'intents'
p548
(lp549
(dp550
S'query'
p551
g546
sS'score'
p552
F0.488958
sS'intent'
p553
VNone
p554
sassS'S/o Lt.Col. Bhusana Mohanty & \n'
p555
(dp556
g469
(lp557
(dp558
g472
g555
sg473
F0.708114743
sg474
VNone
p559
sassS'PAPERS \n'
p560
(dp561
S'intents'
p562
(lp563
(dp564
S'query'
p565
g560
sS'score'
p566
F0.999997139
sS'intent'
p567
VResearch
p568
sassS'Period \n'
p569
(dp570
g248
(lp571
(dp572
g251
g569
sg252
F0.169131368
sg253
VEducation
p573
sassS'Intern at Holla Associates\n'
p574
(dp575
g427
(lp576
(dp577
g430
g574
sg431
F0.269792318
sg432
VNone
p578
sassS'ORGANIZATIONAL EXPERIENCE \n'
p579
(dp580
g321
(lp581
(dp582
g324
g579
sg325
F0.182319954
sg326
VworkExperience
p583
sassS'in May, 2014 and obs'
p584
(dp585
S'intents'
p586
(lp587
(dp588
S'query'
p589
g584
sS'score'
p590
F0.4932537
sS'intent'
p591
VNone
p592
sassS'Niranjan'
p593
(dp594
S'intents'
p595
(lp596
(dp597
S'query'
p598
g593
sS'score'
p599
F0.169131368
sS'intent'
p600
VEducation
p601
sassS'Special Mention'
p602
(dp603
g75
(lp604
(dp605
g78
g602
sg79
F0.189706534
sg80
VNone
p606
sassS'Academic Achievements: \n'
p607
(dp608
g266
(lp609
(dp610
g269
g607
sg270
F0.420227617
sg271
Vskills
p611
sassS'Conferences & Seminars:  \n'
p612
(dp613
g189
(lp614
(dp615
g192
g612
sg193
F0.3507889
sg194
VNone
p616
sassS'New Delhi \n'
p617
(dp618
g230
(lp619
(dp620
g233
g617
sg234
F0.271147281
sg235
VNone
p621
sassS'CHANDANA ARVAL \n'
p622
(dp623
S'intents'
p624
(lp625
(dp626
S'query'
p627
g622
sS'score'
p628
F0.639202
sS'intent'
p629
VNone
p630
sassS'Drafting Work\n'
p631
(dp632
g427
(lp633
(dp634
g430
g631
sg431
F0.138137281
sg432
VNone
p635
sassS'EDUCATION :'
p636
(dp637
g93
(lp638
(dp639
g96
g636
sg97
F0.7785644
sg98
VEducation
p640
sassS'rved civil proceedings.'
p641
(dp642
g586
(lp643
(dp644
g589
g641
sg590
F0.430805922
sg591
VNone
p645
sassS'EDUCATION \n'
p646
(dp647
g57
(lp648
(dp649
g60
g646
sg61
F0.9746962
sg62
VEducation
p650
sassS'Pangea3, Thomson Reuters \n'
p651
(dp652
g111
(lp653
(dp654
g114
g651
sg115
F0.431453884
sg116
VNone
p655
sassS'Page 2 of 2\n'
p656
(dp657
S'intents'
p658
(lp659
(dp660
S'query'
p661
g656
sS'score'
p662
F0.494190246
sS'intent'
p663
VNone
p664
sassS'STRENGTHS:  \n'
p665
(dp666
S'intents'
p667
(lp668
(dp669
S'query'
p670
g665
sS'score'
p671
F0.171096638
sS'intent'
p672
Vskills
p673
sassS'Veritas Legal, Mumbai   \n'
p674
(dp675
S'intents'
p676
(lp677
(dp678
S'query'
p679
g674
sS'score'
p680
F0.44717887
sS'intent'
p681
VNone
p682
sassS'2015)  \n'
p683
(dp684
g3
(lp685
(dp686
g6
g683
sg7
F0.189706534
sg8
VNone
p687
sassS'Odisha -761010 \n'
p688
(dp689
g469
(lp690
(dp691
g472
g688
sg473
F0.276834249
sg474
VNone
p692
sassS'The Lucknow Conclave 2014. \n'
p693
(dp694
S'intents'
p695
(lp696
(dp697
S'query'
p698
g693
sS'score'
p699
F0.43393293
sS'intent'
p700
VNone
p701
sassS'National Law University, \n'
p702
(dp703
g469
(lp704
(dp705
g472
g702
sg473
F0.4168453
sg474
VNone
p706
sassS'[2016] \n'
p707
(dp708
S'intents'
p709
(lp710
(dp711
S'query'
p712
g707
sS'score'
p713
F0.259775519
sS'intent'
p714
VNone
p715
sassS'APARNA MENON \n'
p716
(dp717
g446
(lp718
(dp719
g449
g716
sg450
F0.189706534
sg451
VNone
p720
sassS'NEGANDHI, SHAH & HIMAYATULLAH'
p721
(dp722
g595
(lp723
(dp724
g598
g721
sg599
F0.6739796
sg600
VNone
p725
sassS'Awards, Achievements & Participation \n'
p726
(dp727
g348
(lp728
(dp729
g351
g726
sg352
F0.448972076
sg353
VNone
p730
sassS'WORK PROFILE: \n'
p731
(dp732
S'intents'
p733
(lp734
(dp735
S'query'
p736
g731
sS'score'
p737
F0.506430268
sS'intent'
p738
VworkExperience
p739
sassS'BARRISTER: RAJ RATNA SEN, CALCUTTA  \n'
p740
(dp741
g12
(lp742
(dp743
g15
g740
sg16
F0.481574416
sg17
VNone
p744
sassS'June 2013)'
p745
(dp746
g75
(lp747
(dp748
g78
g745
sg79
F0.259775519
sg80
VNone
p749
sassS'Sr. No. \n'
p750
(dp751
S'intents'
p752
(lp753
(dp754
S'query'
p755
g750
sS'score'
p756
F0.436670721
sS'intent'
p757
VNone
p758
sassS'                   March,  2015.\n'
p759
(dp760
S'intents'
p761
(lp762
(dp763
S'query'
p764
g759
sS'score'
p765
F0.471200556
sS'intent'
p766
VNone
p767
sassS'Course \n'
p768
(dp769
g180
(lp770
(dp771
g183
g768
sg184
F0.169131368
sg185
VEducation
p772
sassS'EDUCATIONAL PROFILE \n'
p773
(dp774
g66
(lp775
(dp776
g69
g773
sg70
F0.429011673
sg71
VEducation
p777
sassS'School, Vapi, Gujarat \n'
p778
(dp779
g3
(lp780
(dp781
g6
g778
sg7
F0.498744339
sg8
VNone
p782
sassS'College/School \n'
p783
(dp784
g312
(lp785
(dp786
g315
g783
sg316
F0.300519228
sg317
VNone
p787
sassS'Legge Rhythms \n'
p788
(dp789
S'intents'
p790
(lp791
(dp792
S'query'
p793
g788
sS'score'
p794
F0.235717878
sS'intent'
p795
VNone
p796
sassS' APJ-SLG Law Offices \n'
p797
(dp798
g790
(lp799
(dp800
g793
g797
sg794
F0.4333483
sg795
VNone
p801
sassS'H.S.C.'
p802
(dp803
g93
(lp804
(dp805
g96
g802
sg97
F0.58885324
sg98
VNone
p806
sassS'University (2015) \n'
p807
(dp808
g230
(lp809
(dp810
g233
g807
sg234
F0.318437636
sg235
VNone
p811
sassS'EXTRA-CURRICULARS \n'
p812
(dp813
S'intents'
p814
(lp815
(dp816
S'query'
p817
g812
sS'score'
p818
F0.8082924
sS'intent'
p819
VextraCurricular
p820
sassS'CO- CURRICULAR ACTIVITIES \n'
p821
(dp822
S'intents'
p823
(lp824
(dp825
S'query'
p826
g821
sS'score'
p827
F0.9586167
sS'intent'
p828
VextraCurricular
p829
sassS'ANKIT KUMAR \n'
p830
(dp831
g180
(lp832
(dp833
g183
g830
sg184
F0.189706534
sg185
VNone
p834
sassS'            November 2016  \n'
p835
(dp836
S'intents'
p837
(lp838
(dp839
S'query'
p840
g835
sS'score'
p841
F0.189706534
sS'intent'
p842
VNone
p843
sassS'MOOT COURTS \n'
p844
(dp845
S'intents'
p846
(lp847
(dp848
S'query'
p849
g844
sS'score'
p850
F0.993482947
sS'intent'
p851
VmootCourtLaw
p852
sassS'Educational Qualifications \n'
p853
(dp854
g348
(lp855
(dp856
g351
g853
sg352
F0.951864243
sg353
VEducation
p857
sassS'Co -Curricular Activities: \n'
p858
(dp859
S'intents'
p860
(lp861
(dp862
S'query'
p863
g858
sS'score'
p864
F0.881091058
sS'intent'
p865
VextraCurricular
p866
sassS'DAWNEESH SHAKTIVATS \n'
p867
(dp868
S'intents'
p869
(lp870
(dp871
S'query'
p872
g867
sS'score'
p873
F0.6388425
sS'intent'
p874
VNone
p875
sassS'Harvard Law School'
p876
(dp877
S'intents'
p878
(lp879
(dp880
S'query'
p881
g876
sS'score'
p882
F0.338556826
sS'intent'
p883
VNone
p884
sassS'( 2012'
p885
(dp886
g93
(lp887
(dp888
g96
g885
sg97
F0.189706534
sg98
VNone
p889
sassS'EXTRA CURRICULAR ACTIVITIES  \n'
p890
(dp891
g869
(lp892
(dp893
g872
g890
sg873
F0.9009125
sg874
VextraCurricular
p894
sassS'CGPA (Out of 10) \n'
p895
(dp896
g348
(lp897
(dp898
g351
g895
sg352
F0.6806137
sg353
VNone
p899
sassS'the month of november,2014 \n'
p900
(dp901
g695
(lp902
(dp903
g698
g900
sg699
F0.6361457
sg700
VNone
p904
sassS'Address for Correspondence:  \n'
p905
(dp906
g138
(lp907
(dp908
g141
g905
sg142
F0.2736271
sg143
VNone
p909
sassS'Symbiosis Law School, Noida \n'
p910
(dp911
S'intents'
p912
(lp913
(dp914
S'query'
p915
g910
sS'score'
p916
F0.4995407
sS'intent'
p917
VNone
p918
sassS'PERSONAL DETAILS: \n'
p919
(dp920
g266
(lp921
(dp922
g269
g919
sg270
F0.203410432
sg271
VNone
p923
sassS'Legal Researcher and Blogger, KnowLaw \n'
p924
(dp925
S'intents'
p926
(lp927
(dp928
S'query'
p929
g924
sS'score'
p930
F0.5281158
sS'intent'
p931
VNone
p932
sassS'Duration \n'
p933
(dp934
g348
(lp935
(dp936
g351
g933
sg352
F0.169131368
sg353
VEducation
p937
sassS'W O R K  E X P E R I E N C E  \n'
p938
(dp939
S'intents'
p940
(lp941
(dp942
S'query'
p943
g938
sS'score'
p944
F0.7067499
sS'intent'
p945
VNone
p946
sassS'CGPA-7.33 \n'
p947
(dp948
g66
(lp949
(dp950
g69
g947
sg70
F0.544795632
sg71
VNone
p951
sassS'ACADEMIC BACKGROUND\n'
p952
(dp953
g418
(lp954
(dp955
g421
g952
sg422
F0.186773553
sg423
VNone
p956
sassS'Surana'
p957
(dp958
g75
(lp959
(dp960
g78
g957
sg79
F0.499958724
sg80
VNone
p961
sassS'year 2013-14. \n'
p962
(dp963
g230
(lp964
(dp965
g233
g962
sg234
F0.4067111
sg235
VNone
p966
sassS'Providence Law Asia LLC  \n'
p967
(dp968
g676
(lp969
(dp970
g679
g967
sg680
F0.332642078
sg681
VNone
p971
sassS'University of Baroda. \n'
p972
(dp973
g30
(lp974
(dp975
g33
g972
sg34
F0.5173421
sg35
VNone
p976
sassS', CENTRAL JAIL, RAIPUR'
p977
(dp978
g595
(lp979
(dp980
g598
g977
sg599
F0.470043778
sg600
VNone
p981
sassS'Work Experience \n'
p982
(dp983
g912
(lp984
(dp985
g915
g982
sg916
F0.9486763
sg917
VworkExperience
p986
sassS'to  CBSE \n'
p987
(dp988
g230
(lp989
(dp990
g233
g987
sg234
F0.186773553
sg235
VNone
p991
sassS'87.27 %'
p992
(dp993
g93
(lp994
(dp995
g96
g992
sg97
F0.3815451
sg98
VNone
p996
sassS'EDUCATION: \n'
p997
(dp998
S'intents'
p999
(lp1000
(dp1001
S'query'
p1002
g997
sS'score'
p1003
F0.7143115
sS'intent'
p1004
VEducation
p1005
sassS'College:'
p1006
(dp1007
S'intents'
p1008
(lp1009
(dp1010
S'query'
p1011
g1006
sS'score'
p1012
F0.250540733
sS'intent'
p1013
Vskills
p1014
sassS'Signature \n'
p1015
(dp1016
g362
(lp1017
(dp1018
g365
g1015
sg366
F0.191661969
sg367
VEducation
p1019
sassS'Objective \n'
p1020
(dp1021
S'intents'
p1022
(lp1023
(dp1024
S'query'
p1025
g1020
sS'score'
p1026
F0.191661969
sS'intent'
p1027
VEducation
p1028
sassS'Organizational Experience:'
p1029
(dp1030
S'intents'
p1031
(lp1032
(dp1033
S'query'
p1034
g1029
sS'score'
p1035
F0.152484223
sS'intent'
p1036
VworkExperience
p1037
sassS'Currently Pursuing  \n'
p1038
(dp1039
g469
(lp1040
(dp1041
g472
g1038
sg473
F0.186773553
sg474
VNone
p1042
sassS'(NOVEMEBER -DECEMBER 2016) \n'
p1043
(dp1044
g248
(lp1045
(dp1046
g251
g1043
sg252
F0.4542453
sg253
VNone
p1047
sassS'(October 2016 -)'
p1048
(dp1049
g293
(lp1050
(dp1051
g296
g1048
sg297
F0.354623169
sg298
VNone
p1052
sassS' Secured: 9.6 CGPA   \n'
p1053
(dp1054
g539
(lp1055
(dp1056
g542
g1053
sg543
F0.538185954
sg544
VNone
p1057
sassS'TIME \n'
p1058
(dp1059
g248
(lp1060
(dp1061
g251
g1058
sg252
F0.169131368
sg253
VEducation
p1062
sassS'Affidavit-of-User'
p1063
(dp1064
g878
(lp1065
(dp1066
g881
g1063
sg882
F0.4404694
sg883
VNone
p1067
sassS'UUNIVERSITY OF SOUTHAMPTON,'
p1068
(dp1069
g595
(lp1070
(dp1071
g598
g1068
sg599
F0.6288045
sg600
VNone
p1072
sassS'Email: aparnamenon96@gmail.com \n'
p1073
(dp1074
g446
(lp1075
(dp1076
g449
g1073
sg450
F0.544124067
sg451
VNone
p1077
sassS'Areas of Interest \n'
p1078
(dp1079
S'intents'
p1080
(lp1081
(dp1082
S'query'
p1083
g1078
sS'score'
p1084
F0.5814527
sS'intent'
p1085
VInterests
p1086
sassS'Awards/Achievements: \n'
p1087
(dp1088
S'intents'
p1089
(lp1090
(dp1091
S'query'
p1092
g1087
sS'score'
p1093
F0.346643955
sS'intent'
p1094
Vskills
p1095
sassS'knowledge. \n'
p1096
(dp1097
g66
(lp1098
(dp1099
g69
g1096
sg70
F0.2549784
sg71
VNone
p1100
sassS'Duration: 20th May- 15th June, 2015\n'
p1101
(dp1102
g418
(lp1103
(dp1104
g421
g1101
sg422
F0.5368079
sg423
VNone
p1105
sassS'Activities & Awards \n'
p1106
(dp1107
g404
(lp1108
(dp1109
g407
g1106
sg408
F0.2078597
sg409
VNone
p1110
sassS'Hobbies and Interests \n'
p1111
(dp1112
g695
(lp1113
(dp1114
g698
g1111
sg699
F0.271773934
sg700
VInterests
p1115
sassS'MOOTING EXPERIENCE'
p1116
(dp1117
g501
(lp1118
(dp1119
g504
g1116
sg505
F0.5698518
sg506
VworkExperience
p1120
sassS'DEBATES, MUNS & OTHER ACHIEVEMENTS \n'
p1121
(dp1122
S'intents'
p1123
(lp1124
(dp1125
S'query'
p1126
g1121
sS'score'
p1127
F0.530145168
sS'intent'
p1128
VNone
p1129
sassS'Corporate Division'
p1130
(dp1131
g293
(lp1132
(dp1133
g296
g1130
sg297
F0.189706534
sg298
VNone
p1134
sassS'PROGRESS \n'
p1135
(dp1136
S'intents'
p1137
(lp1138
(dp1139
S'query'
p1140
g1135
sS'score'
p1141
F0.169131368
sS'intent'
p1142
VEducation
p1143
sassS'Clinical Legal Aid & Litigation,'
p1144
(dp1145
g595
(lp1146
(dp1147
g598
g1144
sg599
F0.550103545
sg600
VNone
p1148
sassS'place in the'
p1149
(dp1150
g75
(lp1151
(dp1152
g78
g1149
sg79
F0.248848155
sg80
VNone
p1153
sassS'MONTFORT \n'
p1154
(dp1155
g66
(lp1156
(dp1157
g69
g1154
sg70
F0.169131368
sg71
VEducation
p1158
sassS'Interned at Consumer U'
p1159
(dp1160
g586
(lp1161
(dp1162
g589
g1159
sg590
F0.389820218
sg591
VNone
p1163
sassS'I Semester'
p1164
(dp1165
g586
(lp1166
(dp1167
g589
g1164
sg590
F0.215165555
sg591
VNone
p1168
sassS'GPA of Consecutive \n'
p1169
(dp1170
g66
(lp1171
(dp1172
g69
g1169
sg70
F0.3607369
sg71
VNone
p1173
sassS'a Coal India subsidiary'
p1174
(dp1175
g75
(lp1176
(dp1177
g78
g1174
sg79
F0.324501246
sg80
VNone
p1178
sassS' +91 8095939473 \n'
p1179
(dp1180
g469
(lp1181
(dp1182
g472
g1179
sg473
F0.319373071
sg474
VNone
p1183
sassS'AYUSH GEHLOT \n'
p1184
(dp1185
g1089
(lp1186
(dp1187
g1092
g1184
sg1093
F0.234922543
sg1094
VNone
p1188
sassS'AZB & Partners, Bangalore   \n'
p1189
(dp1190
S'intents'
p1191
(lp1192
(dp1193
S'query'
p1194
g1189
sS'score'
p1195
F0.641591847
sS'intent'
p1196
VNone
p1197
sassS'Interned'
p1198
(dp1199
g586
(lp1200
(dp1201
g589
g1198
sg590
F0.499958724
sg591
VNone
p1202
sassS'Intern at Hope Foundation\n'
p1203
(dp1204
g427
(lp1205
(dp1206
g430
g1203
sg431
F0.2632919
sg432
VNone
p1207
sassS'OBJECTIVE: \n'
p1208
(dp1209
g30
(lp1210
(dp1211
g33
g1208
sg34
F0.182047635
sg35
Vskills
p1212
sassS'SUMMER COURSES   \n'
p1213
(dp1214
S'intents'
p1215
(lp1216
(dp1217
S'query'
p1218
g1213
sS'score'
p1219
F0.189706534
sS'intent'
p1220
VNone
p1221
sassS'Drew & Napier LLC, Singapore  \n'
p1222
(dp1223
g676
(lp1224
(dp1225
g679
g1222
sg680
F0.55338794
sg681
VNone
p1226
sassS'MODEL UNITED NATIONAS EXPERIENCE  \n'
p1227
(dp1228
g230
(lp1229
(dp1230
g233
g1227
sg234
F0.239817291
sg235
VNone
p1231
sassS'Jalandhar (144022).  \n'
p1232
(dp1233
g525
(lp1234
(dp1235
g528
g1232
sg529
F0.493501
sg530
VNone
p1236
sassS'GLOBAL LEGAL PARTNERS, NEW DELHI  \n'
p1237
(dp1238
g12
(lp1239
(dp1240
g15
g1237
sg16
F0.5443294
sg17
VNone
p1241
sassS'2016) \n'
p1242
(dp1243
S'intents'
p1244
(lp1245
(dp1246
S'query'
p1247
g1242
sS'score'
p1248
F0.189706534
sS'intent'
p1249
VNone
p1250
sassS'CAREER OBJECTIVE\n'
p1251
(dp1252
g418
(lp1253
(dp1254
g421
g1251
sg422
F0.186773553
sg423
VNone
p1255
sassS'Name: DIVYA ASWANI \n'
p1256
(dp1257
S'intents'
p1258
(lp1259
(dp1260
S'query'
p1261
g1256
sS'score'
p1262
F0.322932273
sS'intent'
p1263
VNone
p1264
sassS'Forum, Chandigarh'
p1265
(dp1266
S'intents'
p1267
(lp1268
(dp1269
S'query'
p1270
g1265
sS'score'
p1271
F0.321644
sS'intent'
p1272
VNone
p1273
sassS'Khaitan'
p1274
(dp1275
g878
(lp1276
(dp1277
g881
g1274
sg882
F0.499958724
sg883
VNone
p1278
sassS'SCHOOL, Dhenkanal, \n'
p1279
(dp1280
g66
(lp1281
(dp1282
g69
g1279
sg70
F0.622188151
sg71
VNone
p1283
sassS'Declaration \n'
p1284
(dp1285
g1022
(lp1286
(dp1287
g1025
g1284
sg1026
F0.191661969
sg1027
VEducation
p1288
sassS'(May, 2015 : 4 Weeks) \n'
p1289
(dp1290
g312
(lp1291
(dp1292
g315
g1289
sg316
F0.5305218
sg317
VNone
p1293
sassS'to  31st \n'
p1294
(dp1295
g189
(lp1296
(dp1297
g192
g1294
sg193
F0.189706534
sg194
VNone
p1298
sassS'Dhanashree Suresh Padwal'
p1299
(dp1300
g93
(lp1301
(dp1302
g96
g1299
sg97
F0.365263134
sg98
VNone
p1303
sassS'July 2014 -'
p1304
(dp1305
g548
(lp1306
(dp1307
g551
g1304
sg552
F0.2237311
sg553
VNone
p1308
sassS'Institute / School \n'
p1309
(dp1310
g492
(lp1311
(dp1312
g495
g1309
sg496
F0.264839232
sg497
VNone
p1313
sassS'DR KAINTH & ASSOCIATES, BANGALORE  \n'
p1314
(dp1315
g129
(lp1316
(dp1317
g132
g1314
sg133
F0.6728223
sg134
VNone
p1318
sassS'juvenile  drug  addiction  cum \n'
p1319
(dp1320
g230
(lp1321
(dp1322
g233
g1319
sg234
F0.318437636
sg235
VNone
p1323
sassS'ANUSHREE JUGADE \n'
p1324
(dp1325
g562
(lp1326
(dp1327
g565
g1324
sg566
F0.6388425
sg567
VNone
p1328
sassS'        March to June, 2015 \n'
p1329
(dp1330
g21
(lp1331
(dp1332
g24
g1329
sg25
F0.451431274
sg26
VNone
p1333
sassS'Technical Proficiency \n'
p1334
(dp1335
g483
(lp1336
(dp1337
g486
g1334
sg487
F0.189706534
sg488
VNone
p1338
sassS'December 2013 Indus Law, Bangalore \n'
p1339
(dp1340
S'intents'
p1341
(lp1342
(dp1343
S'query'
p1344
g1339
sS'score'
p1345
F0.526909649
sS'intent'
p1346
VNone
p1347
sassS'  Internships \n'
p1348
(dp1349
g790
(lp1350
(dp1351
g793
g1348
sg794
F0.269267142
sg795
VInternship
p1352
sassS'RESPONSIBILITY \n'
p1353
(dp1354
S'intents'
p1355
(lp1356
(dp1357
S'query'
p1358
g1353
sS'score'
p1359
F0.191661969
sS'intent'
p1360
VEducation
p1361
sassS'National Human Rights Commission,'
p1362
(dp1363
g293
(lp1364
(dp1365
g296
g1362
sg297
F0.440740734
sg298
VNone
p1366
sassS'upreme Court of India'
p1367
(dp1368
g878
(lp1369
(dp1370
g881
g1367
sg882
F0.508005142
sg883
VNone
p1371
sassS'Law College, Jaipur (March 2014)  \n'
p1372
(dp1373
g230
(lp1374
(dp1375
g233
g1372
sg234
F0.603061259
sg235
VNone
p1376
sassS'ADDITIONAL COURSE/QUALIFICATION'
p1377
(dp1378
g1267
(lp1379
(dp1380
g1270
g1377
sg1271
F0.321933746
sg1272
VEducation
p1381
sassS'R E F E R E N C E S  \n'
p1382
(dp1383
g525
(lp1384
(dp1385
g528
g1382
sg529
F0.5897067
sg530
VNone
p1386
sassS'MOOT COURT EXPERIENCE'
p1387
(dp1388
g878
(lp1389
(dp1390
g881
g1387
sg882
F0.9996801
sg883
VmootCourtLaw
p1391
sassS': Advocates and'
p1392
(dp1393
g1267
(lp1394
(dp1395
g1270
g1392
sg1271
F0.214378119
sg1272
VNone
p1396
sassS'PAST INTERNSHIPS'
p1397
(dp1398
g75
(lp1399
(dp1400
g78
g1397
sg79
F0.214088276
sg80
VInternship
p1401
sassS'Modern School, Vasant Vihar \n'
p1402
(dp1403
g912
(lp1404
(dp1405
g915
g1402
sg916
F0.462886155
sg917
VNone
p1406
sassS'V-III (B.L.S) L.L.B \n'
p1407
(dp1408
g539
(lp1409
(dp1410
g542
g1407
sg543
F0.7515144
sg544
VNone
p1411
sassS'Higher Secondary Certificate'
p1412
(dp1413
g93
(lp1414
(dp1415
g96
g1412
sg97
F0.259775519
sg98
VNone
p1416
sassS'+91-9748422206'
p1417
(dp1418
S'intents'
p1419
(lp1420
(dp1421
S'query'
p1422
g1417
sS'score'
p1423
F0.3490249
sS'intent'
p1424
VNone
p1425
sassS'ACADEMIC ACHIEVEMENTS'
p1426
(dp1427
g548
(lp1428
(dp1429
g551
g1426
sg552
F0.318461061
sg553
Vskills
p1430
sassS'BHAGIRATH ASHIYA \n'
p1431
(dp1432
g152
(lp1433
(dp1434
g155
g1431
sg156
F0.639202
sg157
VNone
p1435
sassS'Amity University'
p1436
(dp1437
S'intents'
p1438
(lp1439
(dp1440
S'query'
p1441
g1436
sS'score'
p1442
F0.189706534
sS'intent'
p1443
VNone
p1444
sassS'WORKSHOPS'
p1445
(dp1446
g878
(lp1447
(dp1448
g881
g1445
sg882
F0.169131368
sg883
VEducation
p1449
sassS'B.L.S. LL.B.'
p1450
(dp1451
g93
(lp1452
(dp1453
g96
g1450
sg97
F0.7235486
sg98
VNone
p1454
sassS'CGPA/PERCENTAGE \n'
p1455
(dp1456
g248
(lp1457
(dp1458
g251
g1455
sg252
F0.285043538
sg253
VNone
p1459
sassS'Khetarpal'
p1460
(dp1461
g1267
(lp1462
(dp1463
g1270
g1460
sg1271
F0.499958724
sg1272
VNone
p1464
sassS'CHARACTERISTICs: \n'
p1465
(dp1466
g469
(lp1467
(dp1468
g472
g1465
sg473
F0.184963256
sg474
Vskills
p1469
sassS'ORKSHOPS AND SEMINARS'
p1470
(dp1471
g1267
(lp1472
(dp1473
g1270
g1470
sg1271
F0.313918054
sg1272
VNone
p1474
sassS'Positions Of Responsibility: \n'
p1475
(dp1476
g257
(lp1477
(dp1478
g260
g1475
sg261
F0.3797111
sg262
VNone
p1479
sassS'COMPUTER SKILLS  \n'
p1480
(dp1481
g239
(lp1482
(dp1483
g242
g1480
sg243
F0.339900374
sg244
Vskills
p1484
sassS'Name: DIVYA ASWANI\n'
p1485
(dp1486
S'intents'
p1487
(lp1488
(dp1489
S'query'
p1490
g1485
sS'score'
p1491
F0.322932273
sS'intent'
p1492
VNone
p1493
sassS'Will be furnished upon request \n'
p1494
(dp1495
S'intents'
p1496
(lp1497
(dp1498
S'query'
p1499
g1494
sS'score'
p1500
F0.375780433
sS'intent'
p1501
VNone
p1502
sassS'4.  Kochhar & Co. Gurgaon \n'
p1503
(dp1504
g1022
(lp1505
(dp1506
g1025
g1503
sg1026
F0.671153367
sg1027
VNone
p1507
sassS'Evidence-in-Replies'
p1508
(dp1509
g878
(lp1510
(dp1511
g881
g1508
sg882
F0.3318865
sg883
VNone
p1512
sassS'Managing Partner \n'
p1513
(dp1514
g21
(lp1515
(dp1516
g24
g1513
sg25
F0.189706534
sg26
VNone
p1517
sassS'Board / \n'
p1518
(dp1519
g30
(lp1520
(dp1521
g33
g1518
sg34
F0.1545399
sg35
VNone
p1522
sassS'fair use'
p1523
(dp1524
g878
(lp1525
(dp1526
g881
g1523
sg882
F0.189706534
sg883
VNone
p1527
sassS'PRESENTATIONS \n'
p1528
(dp1529
g12
(lp1530
(dp1531
g15
g1528
sg16
F0.191661969
sg17
VEducation
p1532
sassS'BA.LLB (Hons.) course \n'
p1533
(dp1534
g230
(lp1535
(dp1536
g233
g1533
sg234
F0.6272978
sg235
VNone
p1537
sassS'RESEARCH EXPERIENCE\n'
p1538
(dp1539
S'intents'
p1540
(lp1541
(dp1542
S'query'
p1543
g1538
sS'score'
p1544
F0.9662778
sS'intent'
p1545
VResearch
p1546
sassS'II Semester'
p1547
(dp1548
g586
(lp1549
(dp1550
g589
g1547
sg590
F0.189706534
sg591
VNone
p1551
sassS'ACHIEVEMENTS & PUBLICATIONS'
p1552
(dp1553
g293
(lp1554
(dp1555
g296
g1552
sg297
F0.2749346
sg298
VNone
p1556
sassS'Research Papers \n'
p1557
(dp1558
g120
(lp1559
(dp1560
g123
g1557
sg124
F1.0
sg125
VResearch
p1561
sassS'EMAIL ADDRESS\n'
p1562
(dp1563
g362
(lp1564
(dp1565
g365
g1562
sg366
F0.186773553
sg367
VNone
p1566
sassS'visits.\n'
p1567
(dp1568
g418
(lp1569
(dp1570
g421
g1567
sg422
F0.241771117
sg423
VNone
p1571
sassS'B&B Legal Syndicate, New Delhi \n'
p1572
(dp1573
g912
(lp1574
(dp1575
g915
g1572
sg916
F0.68107754
sg917
VNone
p1576
sassS'Responsibilities: \n'
p1577
(dp1578
g248
(lp1579
(dp1580
g251
g1577
sg252
F0.170412421
sg253
Vskills
p1581
sassS'(March 2017-) \n'
p1582
(dp1583
g525
(lp1584
(dp1585
g528
g1582
sg529
F0.355352938
sg530
VNone
p1586
sassS'Senior  Secondary  (Class \n'
p1587
(dp1588
g230
(lp1589
(dp1590
g233
g1587
sg234
F0.318437636
sg235
VNone
p1591
sassS'QUALIFICATION   \n'
p1592
(dp1593
g66
(lp1594
(dp1595
g69
g1592
sg70
F0.9534061
sg71
VEducation
p1596
sassS'( 2010 )'
p1597
(dp1598
g93
(lp1599
(dp1600
g96
g1597
sg97
F0.259775519
sg98
VNone
p1601
sassS'School, Vapi, Gujarat. \n'
p1602
(dp1603
g3
(lp1604
(dp1605
g6
g1602
sg7
F0.598316669
sg8
VNone
p1606
sassS'EDUCATIONAL QUALIFICATIONS:\n'
p1607
(dp1608
g733
(lp1609
(dp1610
g736
g1607
sg737
F0.75217557
sg738
VEducation
p1611
sassS'BARRISTER: RAJ RATNA SEN, CALCUTTA \n'
p1612
(dp1613
g12
(lp1614
(dp1615
g15
g1612
sg16
F0.481574416
sg17
VNone
p1616
sassS'OTHERS \n'
p1617
(dp1618
g1244
(lp1619
(dp1620
g1247
g1617
sg1248
F0.169131368
sg1249
VEducation
p1621
sassS'Co- Curricular Activities: \n'
p1622
(dp1623
g257
(lp1624
(dp1625
g260
g1622
sg261
F0.881091058
sg262
VextraCurricular
p1626
sassS'semester'
p1627
(dp1628
S'intents'
p1629
(lp1630
(dp1631
S'query'
p1632
g1627
sS'score'
p1633
F0.169131368
sS'intent'
p1634
VEducation
p1635
sassS'S&R Associates, Delhi \n'
p1636
(dp1637
g21
(lp1638
(dp1639
g24
g1636
sg25
F0.644118667
sg26
VNone
p1640
sassS'DHEERAJ K \n'
p1641
(dp1642
g171
(lp1643
(dp1644
g174
g1641
sg175
F0.189706534
sg176
VNone
p1645
sassS'OTHER ACOMPLISHMENTS'
p1646
(dp1647
g548
(lp1648
(dp1649
g551
g1646
sg552
F0.231355771
sg553
VNone
p1650
sassS'ADDITIONAL QUALIFICATIONS AND COURSES \n'
p1651
(dp1652
g248
(lp1653
(dp1654
g251
g1651
sg252
F0.373140454
sg253
VEducation
p1655
sassS'Mr.Upendra Bakshi. \n'
p1656
(dp1657
g695
(lp1658
(dp1659
g698
g1656
sg699
F0.5358129
sg700
VNone
p1660
sassS'MOOT COURT COMPETITIONS & MOCK TRIALS \n'
p1661
(dp1662
S'intents'
p1663
(lp1664
(dp1665
S'query'
p1666
g1661
sS'score'
p1667
F0.7598272
sS'intent'
p1668
VmootCourtLaw
p1669
sassS'Advocate on Record Prashant Bhushan  \n'
p1670
(dp1671
g912
(lp1672
(dp1673
g915
g1670
sg916
F0.310239017
sg917
VNone
p1674
sassS'ACADEMIC ACHIEVEMENTS \n'
p1675
(dp1676
g248
(lp1677
(dp1678
g251
g1675
sg252
F0.318461061
sg253
Vskills
p1679
sassS'DMD Advocates \n'
p1680
(dp1681
g111
(lp1682
(dp1683
g114
g1680
sg115
F0.186773553
sg116
VNone
p1684
sassS'SEMINARS/ WORKSHOPS ATTENDED'
p1685
(dp1686
g548
(lp1687
(dp1688
g551
g1685
sg552
F0.3029843
sg553
VNone
p1689
sassS'Advani  & Co., New \n'
p1690
(dp1691
g57
(lp1692
(dp1693
g60
g1690
sg61
F0.718734562
sg62
VNone
p1694
sassS'7.25 \n'
p1695
(dp1696
g66
(lp1697
(dp1698
g69
g1695
sg70
F0.41023767
sg71
VNone
p1699
sassS'EXTRA-CURRICULAR ACTIVITIES:'
p1700
(dp1701
S'intents'
p1702
(lp1703
(dp1704
S'query'
p1705
g1700
sS'score'
p1706
F0.8932294
sS'intent'
p1707
VextraCurricular
p1708
sassS'X);  Affiliated \n'
p1709
(dp1710
g230
(lp1711
(dp1712
g233
g1709
sg234
F0.318437636
sg235
VNone
p1713
sassS'RESEARCH EXPERIENCE'
p1714
(dp1715
g595
(lp1716
(dp1717
g598
g1714
sg599
F0.9662778
sg600
VResearch
p1718
sassS'Durban, South Africa'
p1719
(dp1720
g878
(lp1721
(dp1722
g881
g1719
sg882
F0.384589046
sg883
VNone
p1723
sassS'Indian Law Institute'
p1724
(dp1725
g1438
(lp1726
(dp1727
g1441
g1724
sg1442
F0.309770048
sg1443
VNone
p1728
sassS'Course/Class \n'
p1729
(dp1730
g312
(lp1731
(dp1732
g315
g1729
sg316
F0.225673229
sg317
VNone
p1733
sassS'EXTRA-CURRICULAR ACTIVITIES\n'
p1734
(dp1735
g1540
(lp1736
(dp1737
g1543
g1734
sg1544
F0.928315
sg1545
VextraCurricular
p1738
sassS'(2016) \n'
p1739
(dp1740
g230
(lp1741
(dp1742
g233
g1739
sg234
F0.255179465
sg235
VNone
p1743
sassS'REFERENCES'
p1744
(dp1745
g293
(lp1746
(dp1747
g296
g1744
sg297
F0.169131368
sg298
VEducation
p1748
sassS'Legal Perspective  \n'
p1749
(dp1750
S'intents'
p1751
(lp1752
(dp1753
S'query'
p1754
g1749
sS'score'
p1755
F0.189706534
sS'intent'
p1756
VNone
p1757
sassS'EXTRA CURRICULAR \n'
p1758
(dp1759
S'intents'
p1760
(lp1761
(dp1762
S'query'
p1763
g1758
sS'score'
p1764
F0.835435033
sS'intent'
p1765
VextraCurricular
p1766
sassS'Months. \n'
p1767
(dp1768
g814
(lp1769
(dp1770
g817
g1767
sg818
F0.260385454
sg819
VNone
p1771
sassS'CO-CURRICULAR \n'
p1772
(dp1773
S'intents'
p1774
(lp1775
(dp1776
S'query'
p1777
g1772
sS'score'
p1778
F0.8077629
sS'intent'
p1779
VextraCurricular
p1780
sassS'Academic Qualifications'
p1781
(dp1782
g501
(lp1783
(dp1784
g504
g1781
sg505
F0.6373812
sg506
VEducation
p1785
sassS'Research Work\n'
p1786
(dp1787
g427
(lp1788
(dp1789
g430
g1786
sg431
F0.999996662
sg432
VResearch
p1790
sassS'Publications: \n'
p1791
(dp1792
g940
(lp1793
(dp1794
g943
g1791
sg944
F0.17198281
sg945
Vskills
p1795
sassS'PRE- UNIVERSITY ACHIEVEMENTS \n'
p1796
(dp1797
g284
(lp1798
(dp1799
g287
g1796
sg288
F0.247801378
sg289
VNone
p1800
sassS'Mr. Sanjay K. Chadha'
p1801
(dp1802
g1438
(lp1803
(dp1804
g1441
g1801
sg1442
F0.5852374
sg1443
VNone
p1805
sassS'CONFERENCES AND LEGAL PUBLICATIONS \n'
p1806
(dp1807
S'intents'
p1808
(lp1809
(dp1810
S'query'
p1811
g1806
sS'score'
p1812
F0.324501246
sS'intent'
p1813
VNone
p1814
sassS'REFERENCES  \n'
p1815
(dp1816
g21
(lp1817
(dp1818
g24
g1815
sg25
F0.169131368
sg26
VEducation
p1819
sassS'DEBATES \n'
p1820
(dp1821
g1244
(lp1822
(dp1823
g1247
g1820
sg1248
F0.169131368
sg1249
VEducation
p1824
sassS'(Ongoing) \n'
p1825
(dp1826
g525
(lp1827
(dp1828
g528
g1825
sg529
F0.259775519
sg530
VNone
p1829
sassS'1.  Cicero Chambers \n'
p1830
(dp1831
g138
(lp1832
(dp1833
g141
g1830
sg142
F0.4046526
sg143
VNone
p1834
sassS'AREAS OF INTEREST'
p1835
(dp1836
g501
(lp1837
(dp1838
g504
g1835
sg505
F0.400287122
sg506
VInterests
p1839
sassS'Championship, 2009. \n'
p1840
(dp1841
S'intents'
p1842
(lp1843
(dp1844
S'query'
p1845
g1840
sS'score'
p1846
F0.461290956
sS'intent'
p1847
VNone
p1848
sassS'REFERENCES: \n'
p1849
(dp1850
g275
(lp1851
(dp1852
g278
g1849
sg279
F0.1843257
sg280
Vskills
p1853
sassS'94.2% marks, May 2012\n'
p1854
(dp1855
g1540
(lp1856
(dp1857
g1543
g1854
sg1544
F0.6225059
sg1545
VNone
p1858
sassS'Date:   10-12-2015 \n'
p1859
(dp1860
g239
(lp1861
(dp1862
g242
g1859
sg243
F0.368579358
sg244
VNone
p1863
sassS'             May 2017 (Anticipated) \n'
p1864
(dp1865
g1215
(lp1866
(dp1867
g1218
g1864
sg1219
F0.383048981
sg1220
VNone
p1868
sassS'PERIOD/PROGRESS \n'
p1869
(dp1870
g248
(lp1871
(dp1872
g251
g1869
sg252
F0.230763
sg253
VNone
p1873
sassS'WRITINGS & PAPER PRESENTATION \n'
p1874
(dp1875
S'intents'
p1876
(lp1877
(dp1878
S'query'
p1879
g1874
sS'score'
p1880
F0.398763239
sS'intent'
p1881
VNone
p1882
sassS'Experience \n'
p1883
(dp1884
g1080
(lp1885
(dp1886
g1083
g1883
sg1084
F0.513719141
sg1085
VworkExperience
p1887
sassS'MUN 2015'
p1888
(dp1889
g75
(lp1890
(dp1891
g78
g1888
sg79
F0.189706534
sg80
VNone
p1892
sassS'Debating\n'
p1893
(dp1894
g427
(lp1895
(dp1896
g430
g1893
sg431
F0.169131368
sg432
VEducation
p1897
sassS'Associate, Bharucha \n'
p1898
(dp1899
g57
(lp1900
(dp1901
g60
g1898
sg61
F0.4025313
sg62
VNone
p1902
sassS'Patrick Keenan, \n'
p1903
(dp1904
g21
(lp1905
(dp1906
g24
g1903
sg25
F0.316619366
sg26
VNone
p1907
sassS'DEBATE'
p1908
(dp1909
g1267
(lp1910
(dp1911
g1270
g1908
sg1271
F0.169131368
sg1272
VEducation
p1912
sassS'Symbiosis International University'
p1913
(dp1914
g548
(lp1915
(dp1916
g551
g1913
sg552
F0.279111564
sg553
VNone
p1917
sassS'LEADERSHIP POSITIONS\n'
p1918
(dp1919
g1540
(lp1920
(dp1921
g1543
g1918
sg1544
F0.189706534
sg1545
VNone
p1922
sassS'CURRENT EDUCATION'
p1923
(dp1924
g1702
(lp1925
(dp1926
g1705
g1923
sg1706
F0.7532732
sg1707
VEducation
p1927
sassS'Arbitration'
p1928
(dp1929
g75
(lp1930
(dp1931
g78
g1928
sg79
F0.169260189
sg80
VEducation
p1932
sassS'COLLEGE/SCHOOL \n'
p1933
(dp1934
g248
(lp1935
(dp1936
g251
g1933
sg252
F0.300519228
sg253
VNone
p1937
sassS'EXPERIENCE  \n'
p1938
(dp1939
g84
(lp1940
(dp1941
g87
g1938
sg88
F0.513719141
sg89
VworkExperience
p1942
sassS'Model United Nations \n'
p1943
(dp1944
g790
(lp1945
(dp1946
g793
g1943
sg794
F0.259775519
sg795
VNone
p1947
sassS'DECLARATION   \n'
p1948
(dp1949
S'intents'
p1950
(lp1951
(dp1952
S'query'
p1953
g1948
sS'score'
p1954
F0.169131368
sS'intent'
p1955
VEducation
p1956
sassS'DIKSHA SINGH \n'
p1957
(dp1958
g1191
(lp1959
(dp1960
g1194
g1957
sg1195
F0.189706534
sg1196
VNone
p1961
sassS'A.B. (Princeton University).'
p1962
(dp1963
g293
(lp1964
(dp1965
g296
g1962
sg297
F0.6593638
sg298
VNone
p1966
sassS':  ayushagarwal.upes@gmail.com \n'
p1967
(dp1968
g138
(lp1969
(dp1970
g141
g1967
sg142
F0.655737758
sg143
VNone
p1971
sassS'Devul Jayant Dighe  \n'
p1972
(dp1973
g752
(lp1974
(dp1975
g755
g1972
sg756
F0.341796845
sg757
VNone
p1976
sassS'IInd Semester \n'
p1977
(dp1978
g404
(lp1979
(dp1980
g407
g1977
sg408
F0.246641457
sg409
VNone
p1981
sassS'Chambers of Mr. Aman Sareen \n'
p1982
(dp1983
g111
(lp1984
(dp1985
g114
g1982
sg115
F0.638666451
sg116
VNone
p1986
sassS'Xth (2012) \n'
p1987
(dp1988
g539
(lp1989
(dp1990
g542
g1987
sg543
F0.381388456
sg544
VNone
p1991
sassS'Universal Legal, Bangalore \n'
p1992
(dp1993
g1191
(lp1994
(dp1995
g1194
g1992
sg1195
F0.4255069
sg1196
VNone
p1996
sassS'Awarded Best Team\n'
p1997
(dp1998
g427
(lp1999
(dp2000
g430
g1997
sg431
F0.259775519
sg432
VNone
p2001
sassS'Intern at Khaitan and Co.\n'
p2002
(dp2003
g427
(lp2004
(dp2005
g430
g2002
sg431
F0.433332145
sg432
VNone
p2006
sassS'DHRUV NAYAR \n'
p2007
(dp2008
g912
(lp2009
(dp2010
g915
g2007
sg916
F0.238209546
sg917
VNone
p2011
sassS'Study and Research in \n'
p2012
(dp2013
g66
(lp2014
(dp2015
g69
g2012
sg70
F0.9252534
sg71
VResearch
p2016
sassS'additional representation sheets'
p2017
(dp2018
g878
(lp2019
(dp2020
g881
g2017
sg882
F0.221586123
sg883
VNone
p2021
sassS'Phone  :  +91 8755890104 \n'
p2022
(dp2023
g138
(lp2024
(dp2025
g141
g2022
sg142
F0.381360978
sg143
VNone
p2026
sassS'civil matters.'
p2027
(dp2028
g93
(lp2029
(dp2030
g96
g2027
sg97
F0.317287236
sg98
VNone
p2031
sassS'minimis'
p2032
(dp2033
g878
(lp2034
(dp2035
g881
g2032
sg882
F0.499958724
sg883
VNone
p2036
sassS'Delhi Public School, Bhilai \n'
p2037
(dp2038
S'intents'
p2039
(lp2040
(dp2041
S'query'
p2042
g2037
sS'score'
p2043
F0.5266683
sS'intent'
p2044
VNone
p2045
sassS'ACHIEVEMENTS & EXTRA CURRICULAR \n'
p2046
(dp2047
g30
(lp2048
(dp2049
g33
g2046
sg34
F0.257742465
sg35
VNone
p2050
sassS'2.  Neolegal Associates, Mumbai \n'
p2051
(dp2052
g446
(lp2053
(dp2054
g449
g2051
sg450
F0.704682767
sg451
VNone
p2055
sassS' International Trade Law \n'
p2056
(dp2057
g469
(lp2058
(dp2059
g472
g2056
sg473
F0.298164755
sg474
VNone
p2060
sassS'POSITION OF RESPONSIBILITIES  HELD  \n'
p2061
(dp2062
g1950
(lp2063
(dp2064
g1953
g2061
sg1954
F0.277666539
sg1955
VNone
p2065
sassS'POSITIONS AND RESPONSIBILITY \n'
p2066
(dp2067
g1842
(lp2068
(dp2069
g1845
g2066
sg1846
F0.259775519
sg1847
VNone
p2070
sassS'Other Achievements'
p2071
(dp2072
g380
(lp2073
(dp2074
g383
g2071
sg384
F0.5648632
sg385
Vskills
p2075
sassS'De Paul International School'
p2076
(dp2077
g75
(lp2078
(dp2079
g78
g2076
sg79
F0.396418661
sg80
VNone
p2080
sassS'HOBBIES AND  INTERESTS \n'
p2081
(dp2082
g321
(lp2083
(dp2084
g324
g2081
sg325
F0.348162174
sg326
VInterests
p2085
sassS'V-III B.L.S L.L.B'
p2086
(dp2087
g1702
(lp2088
(dp2089
g1705
g2086
sg1706
F0.729567468
sg1707
VNone
p2090
sassS'S.K. FARHAN & ASSOCIATES'
p2091
(dp2092
g595
(lp2093
(dp2094
g598
g2091
sg599
F0.633734167
sg600
VNone
p2095
sassS'Altamas'
p2096
(dp2097
g380
(lp2098
(dp2099
g383
g2096
sg384
F0.499958724
sg385
VNone
p2100
sassS'B RITIKA  REDDY \n'
p2101
(dp2102
S'intents'
p2103
(lp2104
(dp2105
S'query'
p2106
g2101
sS'score'
p2107
F0.255179465
sS'intent'
p2108
VNone
p2109
sassS'Name of the \n'
p2110
(dp2111
g362
(lp2112
(dp2113
g365
g2110
sg366
F0.5584866
sg367
VNone
p2114
sassS'(November-December, 2014)'
p2115
(dp2116
g878
(lp2117
(dp2118
g881
g2115
sg882
F0.508282065
sg883
VNone
p2119
sassS':  sweetrimjhim01@gmail.com\n'
p2120
(dp2121
g418
(lp2122
(dp2123
g421
g2120
sg422
F0.4958522
sg423
VNone
p2124
sassS'Pursuing Diploma Course in'
p2125
(dp2126
g1267
(lp2127
(dp2128
g1270
g2125
sg1271
F0.320178181
sg1272
VNone
p2129
sassS'Justice'
p2130
(dp2131
g39
(lp2132
(dp2133
g42
g2130
sg43
F0.169131368
sg44
VEducation
p2134
sassS'Member'
p2135
(dp2136
g878
(lp2137
(dp2138
g881
g2135
sg882
F0.169131368
sg883
VEducation
p2139
sassS'Page 2 of 3 \n'
p2140
(dp2141
g846
(lp2142
(dp2143
g849
g2140
sg850
F0.4985773
sg851
VNone
p2144
sassS'January 2016-16'
p2145
(dp2146
g75
(lp2147
(dp2148
g78
g2145
sg79
F0.296580046
sg80
VNone
p2149
sassS'         QUALIFICATION \n'
p2150
(dp2151
g230
(lp2152
(dp2153
g233
g2150
sg234
F0.919781744
sg235
VEducation
p2154
sassS'INTERNSHIPS AND EXPERIENCE  \n'
p2155
(dp2156
g869
(lp2157
(dp2158
g872
g2155
sg873
F0.26726222
sg874
VInternship
p2159
sassS'SJA Partners and Legal Advisors, Mumbai'
p2160
(dp2161
g1267
(lp2162
(dp2163
g1270
g2160
sg1271
F0.632619858
sg1272
VNone
p2164
sassS'PUBLICATIONS   \n'
p2165
(dp2166
g1950
(lp2167
(dp2168
g1953
g2165
sg1954
F0.169131368
sg1955
VEducation
p2169
sassS'Other Courses \n'
p2170
(dp2171
g48
(lp2172
(dp2173
g51
g2170
sg52
F0.166392252
sg53
VNone
p2174
sassS'December, 2016 \n'
p2175
(dp2176
g21
(lp2177
(dp2178
g24
g2175
sg25
F0.317701459
sg26
VNone
p2179
sassS'Year of Passing \n'
p2180
(dp2181
g362
(lp2182
(dp2183
g365
g2180
sg366
F0.395443231
sg367
VNone
p2184
sassS'September 2016- 24'
p2185
(dp2186
g548
(lp2187
(dp2188
g551
g2185
sg552
F0.295671821
sg553
VNone
p2189
sassS'Extracurricular Activities:  \n'
p2190
(dp2191
g860
(lp2192
(dp2193
g863
g2190
sg864
F0.236731023
sg865
VextraCurricular
p2194
sassS'EXTRA-CURRICULAR ACTIVITIES'
p2195
(dp2196
g878
(lp2197
(dp2198
g881
g2195
sg882
F0.928315
sg883
VextraCurricular
p2199
sassS'Name: Disha Bhatt'
p2200
(dp2201
g586
(lp2202
(dp2203
g589
g2200
sg590
F0.281209648
sg591
VNone
p2204
sassS'AYUSH AGARWAL \n'
p2205
(dp2206
g667
(lp2207
(dp2208
g670
g2205
sg671
F0.186773553
sg672
VNone
p2209
sassS'Date: \n'
p2210
(dp2211
g66
(lp2212
(dp2213
g69
g2210
sg70
F0.27374202
sg71
Vskills
p2214
sassS'Key Achievements \n'
p2215
(dp2216
g1663
(lp2217
(dp2218
g1666
g2215
sg1667
F0.388305873
sg1668
Vskills
p2219
sassS'dibya.nusrl.2015@gmail.com \n'
p2220
(dp2221
g66
(lp2222
(dp2223
g69
g2220
sg70
F0.742632151
sg71
VNone
p2224
sassS'Cease-and-Desist Notice'
p2225
(dp2226
g878
(lp2227
(dp2228
g881
g2225
sg882
F0.3960296
sg883
VNone
p2229
sassS'Moot Courts: \n'
p2230
(dp2231
g266
(lp2232
(dp2233
g269
g2230
sg270
F0.9552097
sg271
VmootCourtLaw
p2234
sassS'C.G.P.A. \n'
p2235
(dp2236
g404
(lp2237
(dp2238
g407
g2235
sg408
F0.6759774
sg409
VNone
p2239
sassS'EXTRA-CURRICULAR ACHIEVEMENTS  \n'
p2240
(dp2241
g284
(lp2242
(dp2243
g287
g2240
sg288
F0.4893935
sg289
VextraCurricular
p2244
sassS'AND PAPER  \n'
p2245
(dp2246
g12
(lp2247
(dp2248
g15
g2245
sg16
F0.186773553
sg17
VNone
p2249
sassS'Chittorgarh'
p2250
(dp2251
g586
(lp2252
(dp2253
g589
g2250
sg590
F0.499958724
sg591
VNone
p2254
sassS' ACADEMICS \n'
p2255
(dp2256
g492
(lp2257
(dp2258
g495
g2255
sg496
F0.919703
sg497
VEducation
p2259
sassS', taking dictation (i.e. typing)'
p2260
(dp2261
g93
(lp2262
(dp2263
g96
g2260
sg97
F0.7160623
sg98
VNone
p2264
sassS'College :'
p2265
(dp2266
g1267
(lp2267
(dp2268
g1270
g2265
sg1271
F0.250540733
sg1272
Vskills
p2269
sassS'Areas of'
p2270
(dp2271
g75
(lp2272
(dp2273
g78
g2270
sg79
F0.204365045
sg80
VInterests
p2274
sassS'Workshop: \n'
p2275
(dp2276
g330
(lp2277
(dp2278
g333
g2275
sg334
F0.195048884
sg335
Vskills
p2279
sassS'Workshops attended: \n'
p2280
(dp2281
g266
(lp2282
(dp2283
g269
g2280
sg270
F0.218747512
sg271
VNone
p2284
sassS'OTHER ACCOMPLISHMENTS \n'
p2285
(dp2286
g695
(lp2287
(dp2288
g698
g2285
sg699
F0.171216682
sg700
VNone
p2289
sassS'Academic \n'
p2290
(dp2291
g492
(lp2292
(dp2293
g495
g2290
sg496
F0.169131368
sg497
VEducation
p2294
sassS'2015: 4 Weeks]'
p2295
(dp2296
g1031
(lp2297
(dp2298
g1034
g2295
sg1035
F0.333797365
sg1036
VNone
p2299
sassS'HONOURS \n'
p2300
(dp2301
g1355
(lp2302
(dp2303
g1358
g2300
sg1359
F0.191661969
sg1360
VEducation
p2304
sassS'10th standard'
p2305
(dp2306
g878
(lp2307
(dp2308
g881
g2305
sg882
F0.189706534
sg883
VNone
p2309
sassS'Research Publications \n'
p2310
(dp2311
g48
(lp2312
(dp2313
g51
g2310
sg52
F0.9104773
sg53
VResearch
p2314
sassS'COURSES \n'
p2315
(dp2316
g1355
(lp2317
(dp2318
g1358
g2315
sg1359
F0.191661969
sg1360
VEducation
p2319
sassS'Name : Anuj Singh \n'
p2320
(dp2321
g404
(lp2322
(dp2323
g407
g2320
sg408
F0.2772839
sg409
VNone
p2324
sassS'Technical Skills: \n'
p2325
(dp2326
g404
(lp2327
(dp2328
g407
g2325
sg408
F0.407326519
sg409
Vskills
p2329
sassS'J. Sagar Associates, Mumbai  \n'
p2330
(dp2331
g676
(lp2332
(dp2333
g679
g2330
sg680
F0.6008784
sg681
VNone
p2334
sassS'issues. \n'
p2335
(dp2336
g418
(lp2337
(dp2338
g421
g2335
sg422
F0.26251635
sg423
VNone
p2339
sassS'63.66% \n'
p2340
(dp2341
g30
(lp2342
(dp2343
g33
g2340
sg34
F0.374317437
sg35
VNone
p2344
sassS'Interests / \n'
p2345
(dp2346
g492
(lp2347
(dp2348
g495
g2345
sg496
F0.245333657
sg497
VInterests
p2349
sassS'Chambers of BV'
p2350
(dp2351
g1031
(lp2352
(dp2353
g1034
g2350
sg1035
F0.366487682
sg1036
VNone
p2354
sassS'Extemporay) Competition. \n'
p2355
(dp2356
g695
(lp2357
(dp2358
g698
g2355
sg699
F0.464630723
sg700
VNone
p2359
sassS', Rajasthan'
p2360
(dp2361
g586
(lp2362
(dp2363
g589
g2360
sg590
F0.251755536
sg591
VNone
p2364
sassS'EDUCATIONAL BACKGROUND  \n'
p2365
(dp2366
g1950
(lp2367
(dp2368
g1953
g2365
sg1954
F0.4973272
sg1955
VEducation
p2369
sassS'Educational Qualification:  \n'
p2370
(dp2371
g860
(lp2372
(dp2373
g863
g2370
sg864
F0.775664032
sg865
VEducation
p2374
sassS'POSITIONS OF RESPONSIBILITY  \n'
p2375
(dp2376
g102
(lp2377
(dp2378
g105
g2375
sg106
F0.364577621
sg107
VNone
p2379
sassS'CONFERENCES AND SEMINARS (Other) \n'
p2380
(dp2381
g198
(lp2382
(dp2383
g201
g2380
sg202
F0.4067441
sg203
VNone
p2384
sassS'[May-June,'
p2385
(dp2386
g1031
(lp2387
(dp2388
g1034
g2385
sg1035
F0.4126901
sg1036
VNone
p2389
sassS'Kolkata- 700006'
p2390
(dp2391
g1419
(lp2392
(dp2393
g1422
g2390
sg1423
F0.285370529
sg1424
VNone
p2394
sassS'Contact Number:'
p2395
(dp2396
g1008
(lp2397
(dp2398
g1011
g2395
sg1012
F0.190586418
sg1013
VNone
p2399
sassS'SOFTWARE  ENGINEER-DEVELOPER \n'
p2400
(dp2401
g1496
(lp2402
(dp2403
g1499
g2400
sg1500
F0.289013684
sg1501
VNone
p2404
sassS'DIVYAJYOT VERMA'
p2405
(dp2406
g595
(lp2407
(dp2408
g598
g2405
sg599
F0.24103421
sg600
VNone
p2409
sassS'Disha Rangi'
p2410
(dp2411
S'intents'
p2412
(lp2413
(dp2414
S'query'
p2415
g2410
sS'score'
p2416
F0.2359085
sS'intent'
p2417
VNone
p2418
sassS'Drafting'
p2419
(dp2420
g93
(lp2421
(dp2422
g96
g2419
sg97
F0.169131368
sg98
VEducation
p2423
sassS'Regards, \n'
p2424
(dp2425
g221
(lp2426
(dp2427
g224
g2424
sg225
F0.24971585
sg226
VNone
p2428
sassS'Redressal'
p2429
(dp2430
g1267
(lp2431
(dp2432
g1270
g2429
sg1271
F0.499958724
sg1272
VNone
p2433
sassS'Qualification \n'
p2434
(dp2435
S'intents'
p2436
(lp2437
(dp2438
S'query'
p2439
g2434
sS'score'
p2440
F0.9534061
sS'intent'
p2441
VEducation
p2442
sassS'Project Name: Briefing of the Cases \n'
p2443
(dp2444
g138
(lp2445
(dp2446
g141
g2443
sg142
F0.5379512
sg143
VNone
p2447
sassS'Author/Researcher\n'
p2448
(dp2449
g1540
(lp2450
(dp2451
g1543
g2448
sg1544
F0.23471193
sg1545
VNone
p2452
sassS'Shardul Amarchand Mangaldas, Mumbai   \n'
p2453
(dp2454
g21
(lp2455
(dp2456
g24
g2453
sg25
F0.608432
sg26
VNone
p2457
sassS'Weeks] \n'
p2458
(dp2459
g171
(lp2460
(dp2461
g174
g2458
sg175
F0.189706534
sg176
VNone
p2462
sassS'Key achievements \n'
p2463
(dp2464
g248
(lp2465
(dp2466
g251
g2463
sg252
F0.388305873
sg253
Vskills
p2467
sassS'Roles & Responsibilities:  \n'
p2468
(dp2469
g1089
(lp2470
(dp2471
g1092
g2468
sg1093
F0.346668065
sg1094
VNone
p2472
sassS'Acharya'
p2473
(dp2474
g1031
(lp2475
(dp2476
g1034
g2473
sg1035
F0.169131368
sg1036
VEducation
p2477
sassS'Academic Credentials \n'
p2478
(dp2479
g1022
(lp2480
(dp2481
g1025
g2478
sg1026
F0.186773553
sg1027
VNone
p2482
sassS'Silver Medal'
p2483
(dp2484
g878
(lp2485
(dp2486
g881
g2483
sg882
F0.189706534
sg883
VNone
p2487
sassS'  [May-June: 2 Weeks] \n'
p2488
(dp2489
S'intents'
p2490
(lp2491
(dp2492
S'query'
p2493
g2488
sS'score'
p2494
F0.4551684
sS'intent'
p2495
VNone
p2496
sassS'ACTIVITIES \n'
p2497
(dp2498
g926
(lp2499
(dp2500
g929
g2497
sg930
F0.347560078
sg931
VextraCurricular
p2501
sassS'Avani Sahajpal | B.Com. LL.B. (Hons.) \n'
p2502
(dp2503
g57
(lp2504
(dp2505
g60
g2502
sg61
F0.821144044
sg62
VNone
p2506
sassS'BHUMIKA MAHESHWARI  \n'
p2507
(dp2508
g207
(lp2509
(dp2510
g210
g2507
sg211
F0.2308404
sg212
VNone
p2511
sassS'[April-May, 2016: 4 Weeks] \n'
p2512
(dp2513
g171
(lp2514
(dp2515
g174
g2512
sg175
F0.5763704
sg176
VNone
p2516
sassS'ACTIVITIES :'
p2517
(dp2518
g93
(lp2519
(dp2520
g96
g2517
sg97
F0.237637624
sg98
VextraCurricular
p2521
sassS'Mrs. Rina Mohanty \n'
p2522
(dp2523
g469
(lp2524
(dp2525
g472
g2522
sg473
F0.36142382
sg474
VNone
p2526
sassS'Grade/ \n'
p2527
(dp2528
g257
(lp2529
(dp2530
g260
g2527
sg261
F0.159532115
sg262
VNone
p2531
sassS'Associates,'
p2532
(dp2533
g595
(lp2534
(dp2535
g598
g2532
sg599
F0.257502645
sg600
VNone
p2536
sassS'Independent  Coursework: \n'
p2537
(dp2538
g860
(lp2539
(dp2540
g863
g2537
sg864
F0.220770657
sg865
VNone
p2541
sassS'AYUSSHI AGARWAL \n'
p2542
(dp2543
S'intents'
p2544
(lp2545
(dp2546
S'query'
p2547
g2542
sS'score'
p2548
F0.240389064
sS'intent'
p2549
VNone
p2550
sassS'November, 2016 \n'
p2551
(dp2552
g21
(lp2553
(dp2554
g24
g2551
sg25
F0.31837365
sg26
VNone
p2555
sassS'PROJECTS \n'
p2556
(dp2557
g84
(lp2558
(dp2559
g87
g2556
sg88
F0.191661969
sg89
VEducation
p2560
sassS'PERSONAL PROFILE \n'
p2561
(dp2562
g371
(lp2563
(dp2564
g374
g2561
sg375
F0.138645
sg376
VNone
p2565
sassS'PERMANENT ADDRESS\n'
p2566
(dp2567
g362
(lp2568
(dp2569
g365
g2566
sg366
F0.186773553
sg367
VNone
p2570
sassS'Courses:\n'
p2571
(dp2572
S'intents'
p2573
(lp2574
(dp2575
S'query'
p2576
g2571
sS'score'
p2577
F0.2040356
sS'intent'
p2578
Vskills
p2579
sassS'Ayushi Agarwal \n'
p2580
(dp2581
g221
(lp2582
(dp2583
g224
g2580
sg225
F0.240389064
sg226
VNone
p2584
sassS'AYUSH JAIN \n'
p2585
(dp2586
g1355
(lp2587
(dp2588
g1358
g2585
sg1359
F0.186773553
sg1360
VNone
p2589
sassS'Contact: +91 9820106885 \n'
p2590
(dp2591
g446
(lp2592
(dp2593
g449
g2590
sg450
F0.381450385
sg451
VNone
p2594
sassS'EDUCATIONAL'
p2595
(dp2596
g93
(lp2597
(dp2598
g96
g2595
sg97
F0.894335032
sg98
VEducation
p2599
sassS'Andhra Pradesh - 530017 \n'
p2600
(dp2601
g469
(lp2602
(dp2603
g472
g2600
sg473
F0.33906588
sg474
VNone
p2604
sassS'ORGANISATIONAL EXPERIENCE \n'
p2605
(dp2606
g180
(lp2607
(dp2608
g183
g2605
sg184
F0.5698518
sg185
VworkExperience
p2609
sassS'Bhubaneshwar, Odisha \n'
p2610
(dp2611
g66
(lp2612
(dp2613
g69
g2610
sg70
F0.305304855
sg71
VNone
p2614
sassS'Year of \n'
p2615
(dp2616
g30
(lp2617
(dp2618
g33
g2615
sg34
F0.40710324
sg35
VNone
p2619
sassS'DESHNA JAIN \n'
p2620
(dp2621
S'intents'
p2622
(lp2623
(dp2624
S'query'
p2625
g2620
sS'score'
p2626
F0.245135039
sS'intent'
p2627
VNone
p2628
sassS'CO - CURRICULAR ACTIVITIES  \n'
p2629
(dp2630
S'intents'
p2631
(lp2632
(dp2633
S'query'
p2634
g2629
sS'score'
p2635
F0.92307657
sS'intent'
p2636
VextraCurricular
p2637
sassS'Dhruvin Dossani'
p2638
(dp2639
g1008
(lp2640
(dp2641
g1011
g2638
sg1012
F0.6388425
sg1013
VNone
p2642
sassS'(POLICY ADVISORY TEAM)\n'
p2643
(dp2644
g1540
(lp2645
(dp2646
g1543
g2643
sg1544
F0.383048981
sg1545
VNone
p2647
sassS'AWARDS \n'
p2648
(dp2649
g84
(lp2650
(dp2651
g87
g2648
sg88
F0.191661969
sg89
VEducation
p2652
sassS'MOOT COURT COMPETITIONS \n'
p2653
(dp2654
g66
(lp2655
(dp2656
g69
g2653
sg70
F0.997960746
sg71
VmootCourtLaw
p2657
sassS'REFERENCE \n'
p2658
(dp2659
g1876
(lp2660
(dp2661
g1879
g2658
sg1880
F0.169131368
sg1881
VEducation
p2662
sassS'III-II- L.L.B \n'
p2663
(dp2664
g3
(lp2665
(dp2666
g6
g2663
sg7
F0.590884149
sg8
VNone
p2667
sassS'Secondary School Certificate (S.S.C.)'
p2668
(dp2669
g93
(lp2670
(dp2671
g96
g2668
sg97
F0.724785149
sg98
VNone
p2672
sassS'Delhi State Legal Services Aut'
p2673
(dp2674
g1267
(lp2675
(dp2676
g1270
g2673
sg1271
F0.433348179
sg1272
VNone
p2677
sassS'POSITION OF RESPONSIBILITY \n'
p2678
(dp2679
g248
(lp2680
(dp2681
g251
g2678
sg252
F0.268088043
sg253
Vskills
p2682
sassS'V-III B.L.S. LL.B\n'
p2683
(dp2684
g733
(lp2685
(dp2686
g736
g2683
sg737
F0.7060255
sg738
VNone
p2687
sassS'Centre for'
p2688
(dp2689
g595
(lp2690
(dp2691
g598
g2688
sg599
F0.189706534
sg600
VNone
p2692
sassS'AREAS OF INTEREST\n'
p2693
(dp2694
g2573
(lp2695
(dp2696
g2576
g2693
sg2577
F0.400287122
sg2578
VInterests
p2697
sassS'undertaken  \n'
p2698
(dp2699
g492
(lp2700
(dp2701
g495
g2698
sg496
F0.499958724
sg497
VNone
p2702
sassS'[May, 2015: 4 weeks]'
p2703
(dp2704
g380
(lp2705
(dp2706
g383
g2703
sg384
F0.5296059
sg385
VNone
p2707
sassS'HOBBIES AND INTERESTS  \n'
p2708
(dp2709
g207
(lp2710
(dp2711
g210
g2708
sg211
F0.348162174
sg212
VInterests
p2712
sassS'Qualifications in Action \n'
p2713
(dp2714
g1089
(lp2715
(dp2716
g1092
g2713
sg1093
F0.401399136
sg1094
VEducation
p2717
sassS'Alpha Editors  \n'
p2718
(dp2719
g21
(lp2720
(dp2721
g24
g2718
sg25
F0.189706534
sg26
VNone
p2722
sassS'Conducted  counseling  sessions \n'
p2723
(dp2724
g230
(lp2725
(dp2726
g233
g2723
sg234
F0.304693967
sg235
VNone
p2727
sassS'SCHOLASTIC \n'
p2728
(dp2729
g562
(lp2730
(dp2731
g565
g2728
sg566
F0.919703
sg567
VEducation
p2732
sassS'forms  of  Corruption  by \n'
p2733
(dp2734
g469
(lp2735
(dp2736
g472
g2733
sg473
F0.439074516
sg474
VNone
p2737
sassS'PAPER PRESENTATION AND PUBLICATION \n'
p2738
(dp2739
g869
(lp2740
(dp2741
g872
g2738
sg873
F0.324501246
sg874
VNone
p2742
sassS'Moot Court Achievements \n'
p2743
(dp2744
g2544
(lp2745
(dp2746
g2547
g2743
sg2548
F0.9988467
sg2549
VmootCourtLaw
p2747
sassS'Sports\n'
p2748
(dp2749
g427
(lp2750
(dp2751
g430
g2748
sg431
F0.167206883
sg432
VEducation
p2752
sassS'4 weeks] \n'
p2753
(dp2754
g321
(lp2755
(dp2756
g324
g2753
sg325
F0.255179465
sg326
VNone
p2757
sassS'Don Bosco School'
p2758
(dp2759
g1438
(lp2760
(dp2761
g1441
g2758
sg1442
F0.297875881
sg1443
VNone
p2762
sassS'Hobbies and Interests'
p2763
(dp2764
g380
(lp2765
(dp2766
g383
g2763
sg384
F0.271773934
sg385
VInterests
p2767
sassS'DME, GGSIPU \n'
p2768
(dp2769
g230
(lp2770
(dp2771
g233
g2768
sg234
F0.380241543
sg235
VNone
p2772
sassS'Organization:'
p2773
(dp2774
g548
(lp2775
(dp2776
g551
g2773
sg552
F0.19177115
sg553
Vskills
p2777
sassS'VI Semester;'
p2778
(dp2779
g1629
(lp2780
(dp2781
g1632
g2778
sg1633
F0.259775519
sg1634
VNone
p2782
sassS'PUBLICATIONS AND RESEARCH'
p2783
(dp2784
g548
(lp2785
(dp2786
g551
g2783
sg552
F0.588241339
sg553
VResearch
p2787
sassS'Date of birth: 16/07/1994   \n'
p2788
(dp2789
g483
(lp2790
(dp2791
g486
g2788
sg487
F0.5647482
sg488
VNone
p2792
sassS'Permanent Address:                    \n'
p2793
(dp2794
g138
(lp2795
(dp2796
g141
g2793
sg142
F0.209239259
sg143
VNone
p2797
sassS'November 2014 \n'
p2798
(dp2799
g846
(lp2800
(dp2801
g849
g2798
sg850
F0.189706534
sg851
VNone
p2802
sassS'Areas of Interest: \n'
p2803
(dp2804
g404
(lp2805
(dp2806
g407
g2803
sg408
F0.323078036
sg409
VInterests
p2807
sassS'ADDITIONAL COURSES AND QUALIFICATIONS \n'
p2808
(dp2809
g709
(lp2810
(dp2811
g712
g2808
sg713
F0.373140454
sg714
VEducation
p2812
sassS'Law Offices,'
p2813
(dp2814
g1629
(lp2815
(dp2816
g1632
g2813
sg1633
F0.366682321
sg1634
VNone
p2817
sassS'C Abhinav Sharma \n'
p2818
(dp2819
S'intents'
p2820
(lp2821
(dp2822
S'query'
p2823
g2818
sS'score'
p2824
F0.255179465
sS'intent'
p2825
VNone
p2826
sassS'DHIRENDRA SINGH \n'
p2827
(dp2828
S'intents'
p2829
(lp2830
(dp2831
S'query'
p2832
g2827
sS'score'
p2833
F0.262130678
sS'intent'
p2834
VNone
p2835
sassS'IVth Semester \n'
p2836
(dp2837
g404
(lp2838
(dp2839
g407
g2836
sg408
F0.246641457
sg409
VNone
p2840
sassS'T.DEEKSHITHA \n'
p2841
(dp2842
g837
(lp2843
(dp2844
g840
g2841
sg841
F0.568273067
sg842
VNone
p2845
sassS'Email id - ayush8996@gmail.com \n'
p2846
(dp2847
g667
(lp2848
(dp2849
g670
g2846
sg671
F0.5919522
sg672
VNone
p2850
sassS'(FICCI)'
p2851
(dp2852
g878
(lp2853
(dp2854
g881
g2851
sg882
F0.259775519
sg883
VNone
p2855
sassS'COURSE \n'
p2856
(dp2857
g248
(lp2858
(dp2859
g251
g2856
sg252
F0.169131368
sg253
VEducation
p2860
sassS'Mock Indian Parliament, 2015. \n'
p2861
(dp2862
S'intents'
p2863
(lp2864
(dp2865
S'query'
p2866
g2861
sS'score'
p2867
F0.5494098
sS'intent'
p2868
VNone
p2869
sassS'Address: 2/1 A, NandoMullick Lane'
p2870
(dp2871
g1419
(lp2872
(dp2873
g1422
g2870
sg1423
F0.6184616
sg1424
VNone
p2874
sassS'ACTIVITIES AND INTEREST \n'
p2875
(dp2876
g371
(lp2877
(dp2878
g374
g2875
sg375
F0.214352623
sg376
VInterests
p2879
sassS'INFORMATION \n'
p2880
(dp2881
g814
(lp2882
(dp2883
g817
g2880
sg818
F0.169131368
sg819
VEducation
p2884
sassS'LANGUAGES \n'
p2885
(dp2886
g1215
(lp2887
(dp2888
g1218
g2885
sg1219
F0.467207074
sg1220
Vlanguages
p2889
sassS'Phone: +91 8106743973, \n'
p2890
(dp2891
g469
(lp2892
(dp2893
g472
g2890
sg473
F0.5064646
sg474
VNone
p2894
sassS'High Court, Hyderabad'
p2895
(dp2896
g595
(lp2897
(dp2898
g598
g2895
sg599
F0.331605077
sg600
VNone
p2899
sassS'Policy  Meet \n'
p2900
(dp2901
g230
(lp2902
(dp2903
g233
g2900
sg234
F0.186773553
sg235
VNone
p2904
sassS'EXPERIENCE AS AN ORGANISER \n'
p2905
(dp2906
g275
(lp2907
(dp2908
g278
g2905
sg279
F0.2764464
sg280
VworkExperience
p2909
sassS'Phone\n'
p2910
(dp2911
g427
(lp2912
(dp2913
g430
g2910
sg431
F0.169131368
sg432
VEducation
p2914
sassS'OTHER ACHIEVEMENTS  \n'
p2915
(dp2916
g2490
(lp2917
(dp2918
g2493
g2915
sg2494
F0.5648632
sg2495
Vskills
p2919
sassS'POSITION OF RESPONSIBILITIES:'
p2920
(dp2921
g1629
(lp2922
(dp2923
g1632
g2920
sg1633
F0.354759067
sg1634
Vskills
p2924
sassS'the Advocate General, Karnataka'
p2925
(dp2926
g1031
(lp2927
(dp2928
g1034
g2925
sg1035
F0.347135276
sg1036
VNone
p2929
sassS'Phone:'
p2930
(dp2931
g878
(lp2932
(dp2933
g881
g2930
sg882
F0.3699346
sg883
Vskills
p2934
sassS'   Jun, 2016 \n'
p2935
(dp2936
g84
(lp2937
(dp2938
g87
g2935
sg88
F0.31313
sg89
VNone
p2939
sassS'Date: 08'
p2940
(dp2941
g75
(lp2942
(dp2943
g78
g2940
sg79
F0.206266627
sg80
VNone
p2944
sassS'  [April-May: 3 Weeks] \n'
p2945
(dp2946
g2490
(lp2947
(dp2948
g2493
g2945
sg2494
F0.454813242
sg2495
VNone
p2949
sassS'Allahabad \n'
p2950
(dp2951
g138
(lp2952
(dp2953
g141
g2950
sg142
F0.169131368
sg143
VEducation
p2954
sassS'Dev Agnihotri\n'
p2955
(dp2956
g1540
(lp2957
(dp2958
g1543
g2955
sg1544
F0.256535172
sg1545
VNone
p2959
sassS'Moot Court- \n'
p2960
(dp2961
g2103
(lp2962
(dp2963
g2106
g2960
sg2107
F0.999970436
sg2108
VmootCourtLaw
p2964
sassS'ESSAY WRITING & PAPER PRESENTATION \n'
p2965
(dp2966
g102
(lp2967
(dp2968
g105
g2965
sg106
F0.4593123
sg107
VNone
p2969
sassS'Date of Birth:'
p2970
(dp2971
g501
(lp2972
(dp2973
g504
g2970
sg505
F0.402167
sg506
VNone
p2974
sassS'   [May, 2014: 4 weeks]\n'
p2975
(dp2976
S'intents'
p2977
(lp2978
(dp2979
S'query'
p2980
g2975
sS'score'
p2981
F0.5298252
sS'intent'
p2982
VNone
p2983
sassS'ORGANIZATIONAL ACTIVITIES'
p2984
(dp2985
g1267
(lp2986
(dp2987
g1270
g2984
sg1271
F0.108487755
sg1272
VNone
p2988
sassS' Positions of Responsibility Held \n'
p2989
(dp2990
g48
(lp2991
(dp2992
g51
g2989
sg52
F0.421606064
sg53
VNone
p2993
sassS'EDUCA TIONA L Q UA L IFIC ATION S\n'
p2994
(dp2995
g2977
(lp2996
(dp2997
g2980
g2994
sg2981
F0.6454623
sg2982
VNone
p2998
sassS'Member,'
p2999
(dp3000
g878
(lp3001
(dp3002
g881
g2999
sg882
F0.259817034
sg883
VNone
p3003
sassS'College Pune. \n'
p3004
(dp3005
g695
(lp3006
(dp3007
g698
g3004
sg699
F0.360030949
sg700
VNone
p3008
sassS' Moots \n'
p3009
(dp3010
g120
(lp3011
(dp3012
g123
g3009
sg124
F0.502055764
sg125
VNone
p3013
sassS'IIIrd Semester \n'
p3014
(dp3015
g404
(lp3016
(dp3017
g407
g3014
sg408
F0.246641457
sg409
VNone
p3018
sassS'CHRISTINA SHAJU \n'
p3019
(dp3020
g761
(lp3021
(dp3022
g764
g3019
sg765
F0.2603491
sg766
VNone
p3023
sassS'DIMPLE SINGH'
p3024
(dp3025
g548
(lp3026
(dp3027
g551
g3024
sg552
F0.189706534
sg553
VNone
p3028
sassS'Address\n'
p3029
(dp3030
g427
(lp3031
(dp3032
g430
g3029
sg431
F0.169131368
sg432
VEducation
p3033
sassS'2nd Year \n'
p3034
(dp3035
g539
(lp3036
(dp3037
g542
g3034
sg543
F0.186773553
sg544
VNone
p3038
sassS'Permanent Address:'
p3039
(dp3040
g878
(lp3041
(dp3042
g881
g3039
sg882
F0.209239259
sg883
VNone
p3043
sassS'Anusha Associates'
p3044
(dp3045
g1702
(lp3046
(dp3047
g1705
g3044
sg1706
F0.189706534
sg1707
VNone
p3048
sassS'EDUCATIONAL PROFILE'
p3049
(dp3050
g75
(lp3051
(dp3052
g78
g3049
sg79
F0.429011673
sg80
VEducation
p3053
sassS'CHARU SHARMA \n'
p3054
(dp3055
g371
(lp3056
(dp3057
g374
g3054
sg375
F0.186773553
sg376
VNone
p3058
sassS'Address:'
p3059
(dp3060
g501
(lp3061
(dp3062
g504
g3059
sg505
F0.2703173
sg506
Vskills
p3063
sassS'Animal Welfare\n'
p3064
(dp3065
g427
(lp3066
(dp3067
g430
g3064
sg431
F0.189706534
sg432
VNone
p3068
sassS'EXTRA-CURRICULARS'
p3069
(dp3070
g1267
(lp3071
(dp3072
g1270
g3069
sg1271
F0.8082924
sg1272
VextraCurricular
p3073
sassS'RELEVANT EXPERIENCE \n'
p3074
(dp3075
g371
(lp3076
(dp3077
g374
g3074
sg375
F0.192042246
sg376
VworkExperience
p3078
sassS'EXTRA CURRICULAR ACTIVITIES:  \n'
p3079
(dp3080
g371
(lp3081
(dp3082
g374
g3079
sg375
F0.9040638
sg376
VextraCurricular
p3083
sassS'B M BIPLAB \n'
p3084
(dp3085
S'intents'
p3086
(lp3087
(dp3088
S'query'
p3089
g3084
sS'score'
p3090
F0.3712795
sS'intent'
p3091
VNone
p3092
sassS'LANGUAGES KNOWN: \n'
p3093
(dp3094
g266
(lp3095
(dp3096
g269
g3093
sg270
F0.177863166
sg271
Vlanguages
p3097
sassS' February  25, 2017 \n'
p3098
(dp3099
g1950
(lp3100
(dp3101
g1953
g3098
sg1954
F0.3779932
sg1955
VNone
p3102
sassS'Presently intern'
p3103
(dp3104
g93
(lp3105
(dp3106
g96
g3103
sg97
F0.351637453
sg98
VInternship
p3107
sassS'PRE- UNIVERSITY ACHIEVEMENTS'
p3108
(dp3109
g548
(lp3110
(dp3111
g551
g3108
sg552
F0.250397
sg553
VNone
p3112
sassS'EXTRA-CURRICULAR ACTIVITIES \n'
p3113
(dp3114
g48
(lp3115
(dp3116
g51
g3113
sg52
F0.928315
sg53
VextraCurricular
p3117
sassS'DELHI PUBLIC SCHOOL,'
p3118
(dp3119
g595
(lp3120
(dp3121
g598
g3118
sg599
F0.524408758
sg600
VNone
p3122
sassS'WORKSHOPS ATTENDED \n'
p3123
(dp3124
g1663
(lp3125
(dp3126
g1666
g3123
sg1667
F0.189706534
sg1668
VNone
p3127
sassS'Juris Corp Advocates & Solicitors \n'
p3128
(dp3129
g1751
(lp3130
(dp3131
g1754
g3128
sg1755
F0.440002382
sg1756
VNone
p3132
sassS'CGPA/Percentage \n'
p3133
(dp3134
g312
(lp3135
(dp3136
g315
g3133
sg316
F0.285043538
sg317
VNone
p3137
sassS'Book Author \n'
p3138
(dp3139
g1751
(lp3140
(dp3141
g1754
g3138
sg1755
F0.189706534
sg1756
VNone
p3142
sassS'May, 2015 \n'
p3143
(dp3144
g21
(lp3145
(dp3146
g24
g3143
sg25
F0.336324126
sg26
VNone
p3147
sassS'INTERNSHIPS AND EXPERIENCE:'
p3148
(dp3149
g1629
(lp3150
(dp3151
g1632
g3148
sg1633
F0.243310764
sg1634
VInternship
p3152
sassS'DARSHIL SHAH \n'
p3153
(dp3154
g189
(lp3155
(dp3156
g192
g3153
sg193
F0.251561731
sg194
VNone
p3157
sassS'Legal Database: \n'
p3158
(dp3159
g404
(lp3160
(dp3161
g407
g3158
sg408
F0.210216135
sg409
VNone
p3162
sassS'                     Rahul Sarella  \n'
p3163
(dp3164
g837
(lp3165
(dp3166
g840
g3163
sg841
F0.250647217
sg842
VNone
p3167
sassS'ANISHA DASH \n'
p3168
(dp3169
g248
(lp3170
(dp3171
g251
g3168
sg252
F0.189706534
sg253
VNone
p3172
sassS'3.         Human Rights Initiative  \n'
p3173
(dp3174
g1080
(lp3175
(dp3176
g1083
g3173
sg1084
F0.429284066
sg1085
VNone
p3177
sassS'MOOT COURT COMPETITIONS'
p3178
(dp3179
g1267
(lp3180
(dp3181
g1270
g3178
sg1271
F0.997960746
sg1272
VmootCourtLaw
p3182
sassS'Salwan Public School, New Delhi   \n'
p3183
(dp3184
g371
(lp3185
(dp3186
g374
g3183
sg375
F0.6873011
sg376
VNone
p3187
sassS'Dainik Bhaskar  \n'
p3188
(dp3189
g676
(lp3190
(dp3191
g679
g3188
sg680
F0.186773553
sg681
VNone
p3192
sassS'he District and Sessions Court,'
p3193
(dp3194
g586
(lp3195
(dp3196
g589
g3193
sg590
F0.441621929
sg591
VNone
p3197
sassS'Ahmedabad \n'
p3198
(dp3199
g57
(lp3200
(dp3201
g60
g3198
sg61
F0.169131368
sg62
VEducation
p3202
sassS'Pre-University Achievements'
p3203
(dp3204
g380
(lp3205
(dp3206
g383
g3203
sg384
F0.250397
sg385
VNone
p3207
sassS'  ACADEMIC PROFILE \n'
p3208
(dp3209
g1089
(lp3210
(dp3211
g1092
g3208
sg1093
F0.14501965
sg1094
VNone
p3212
sassS'MOOTING EXPERIENCE: \n'
p3213
(dp3214
g171
(lp3215
(dp3216
g174
g3213
sg175
F0.409678936
sg176
VworkExperience
p3217
sassS'11/10/2016 \n'
p3218
(dp3219
S'intents'
p3220
(lp3221
(dp3222
S'query'
p3223
g3218
sS'score'
p3224
F0.333074182
sS'intent'
p3225
VNone
p3226
sassS'INTERNSHIP EXPERIENCE  \n'
p3227
(dp3228
g2544
(lp3229
(dp3230
g2547
g3227
sg2548
F0.7355406
sg2549
VInternship
p3231
sassS'ADDITIONAL QUALIFICATIONS'
p3232
(dp3233
g548
(lp3234
(dp3235
g551
g3232
sg552
F0.9150022
sg553
VEducation
p3236
sassS'WORK EXPERIENCE: \n'
p3237
(dp3238
g446
(lp3239
(dp3240
g449
g3237
sg450
F0.8951147
sg451
VworkExperience
p3241
sassS'AREA OF INTEREST  \n'
p3242
(dp3243
g248
(lp3244
(dp3245
g251
g3242
sg252
F0.24293448
sg253
VNone
p3246
sassS'd, Bengaluru (30'
p3247
(dp3248
g75
(lp3249
(dp3250
g78
g3247
sg79
F0.4464386
sg80
VNone
p3251
sassS'Mooting Experience:'
p3252
(dp3253
g1031
(lp3254
(dp3255
g1034
g3252
sg1035
F0.409678936
sg1036
VworkExperience
p3256
sassS'OTHER EDUCATIONAL COURSES'
p3257
(dp3258
g1702
(lp3259
(dp3260
g1705
g3257
sg1706
F0.164715663
sg1707
VNone
p3261
sassS'AYUSHI AGARWAL \n'
p3262
(dp3263
g221
(lp3264
(dp3265
g224
g3262
sg225
F0.240389064
sg226
VNone
p3266
sassS'Page 1 of 2\n'
p3267
(dp3268
g658
(lp3269
(dp3270
g661
g3267
sg662
F0.550399065
sg663
VNone
p3271
sassS'Bhopal. \n'
p3272
(dp3273
g138
(lp3274
(dp3275
g141
g3272
sg142
F0.2462115
sg143
VNone
p3276
sassS'4/10/2016 \n'
p3277
(dp3278
g66
(lp3279
(dp3280
g69
g3277
sg70
F0.331700236
sg71
VNone
p3281
sassS'Hobbies \n'
p3282
(dp3283
g492
(lp3284
(dp3285
g495
g3282
sg496
F0.533040643
sg497
Vskills
p3286
sassS'my knowledge, information and belief. \n'
p3287
(dp3288
g284
(lp3289
(dp3290
g287
g3287
sg288
F0.58724165
sg289
VNone
p3291
sassS'Additional qualifications and Courses'
p3292
(dp3293
g380
(lp3294
(dp3295
g383
g3292
sg384
F0.373140454
sg385
VEducation
p3296
sassS'July 2016)'
p3297
(dp3298
g75
(lp3299
(dp3300
g78
g3297
sg79
F0.259775519
sg80
VNone
p3301
sassS'COLLEGE/SCHOOL  QUALIFICATION \n'
p3302
(dp3303
g1137
(lp3304
(dp3305
g1140
g3302
sg1141
F0.243269637
sg1142
VNone
p3306
sassS'MUN: \n'
p3307
(dp3308
S'intents'
p3309
(lp3310
(dp3311
S'query'
p3312
g3307
sS'score'
p3313
F0.180510357
sS'intent'
p3314
Vskills
p3315
sassS'Internship Experience: \n'
p3316
(dp3317
g860
(lp3318
(dp3319
g863
g3316
sg864
F0.412200153
sg865
VInternship
p3320
sassS'Social Work and \n'
p3321
(dp3322
g492
(lp3323
(dp3324
g495
g3321
sg496
F0.17853719
sg497
VNone
p3325
sassS'SCHOLARSHIPS \n'
p3326
(dp3327
g676
(lp3328
(dp3329
g679
g3326
sg680
F0.191661969
sg681
VEducation
p3330
sassS'POSITIONS OF \n'
p3331
(dp3332
g1355
(lp3333
(dp3334
g1358
g3331
sg1359
F0.3236839
sg1360
VNone
p3335
sassS'NIVERSITY OF SOUTHAMPTON,'
p3336
(dp3337
S'intents'
p3338
(lp3339
(dp3340
S'query'
p3341
g3336
sS'score'
p3342
F0.483747184
sS'intent'
p3343
VNone
p3344
sassS'"Sahyog \n'
p3345
(dp3346
g230
(lp3347
(dp3348
g233
g3345
sg234
F0.278793782
sg235
VNone
p3349
sassS'Kolkata'
p3350
(dp3351
g1267
(lp3352
(dp3353
g1270
g3350
sg1271
F0.169131368
sg1272
VEducation
p3354
sassS'Law. \n'
p3355
(dp3356
g695
(lp3357
(dp3358
g698
g3355
sg699
F0.3365266
sg700
VNone
p3359
sassS'information and belief. \n'
p3360
(dp3361
g404
(lp3362
(dp3363
g407
g3360
sg408
F0.385414243
sg409
VNone
p3364
sassS'Responsibilities:'
p3365
(dp3366
g548
(lp3367
(dp3368
g551
g3365
sg552
F0.170412421
sg553
Vskills
p3369
sassS'INTERESTS: \n'
p3370
(dp3371
g275
(lp3372
(dp3373
g278
g3370
sg279
F0.354410678
sg280
VInterests
p3374
sassS'BISHIKH MOHANTY \n'
p3375
(dp3376
g469
(lp3377
(dp3378
g472
g3375
sg473
F0.231416553
sg474
VNone
p3379
sassS'November 2015 \n'
p3380
(dp3381
g1191
(lp3382
(dp3383
g1194
g3380
sg1195
F0.189706534
sg1196
VNone
p3384
sassS'(Class  XII);    Affiliated  to \n'
p3385
(dp3386
g230
(lp3387
(dp3388
g233
g3385
sg234
F0.47313574
sg235
VNone
p3389
sassS'Rajeeve'
p3390
(dp3391
g878
(lp3392
(dp3393
g881
g3390
sg882
F0.499958724
sg883
VNone
p3394
sassS'DATE OF BIRTH\n'
p3395
(dp3396
g362
(lp3397
(dp3398
g365
g3395
sg366
F0.414010644
sg367
VNone
p3399
sassS'CAREER OBJECTIVE  \n'
p3400
(dp3401
g1950
(lp3402
(dp3403
g1953
g3400
sg1954
F0.189706534
sg1955
VNone
p3404
sassS'Wadia Ghandy & Co. \n'
p3405
(dp3406
g111
(lp3407
(dp3408
g114
g3405
sg115
F0.534771
sg116
VNone
p3409
sassS'PRE-UNIVERSITY ACHIEVEMENTS\n'
p3410
(dp3411
g418
(lp3412
(dp3413
g421
g3410
sg422
F0.247801378
sg423
VNone
p3414
sassS'May 2015 \n'
p3415
(dp3416
g846
(lp3417
(dp3418
g849
g3415
sg850
F0.189706534
sg851
VNone
p3419
sassS'Hyderabad'
p3420
(dp3421
g595
(lp3422
(dp3423
g598
g3420
sg599
F0.169131368
sg600
VEducation
p3424
sassS'AYUSH VIJAYVARGIYA \n'
p3425
(dp3426
g1760
(lp3427
(dp3428
g1763
g3425
sg1764
F0.234922543
sg1765
VNone
p3429
sassS'KHAITAN & COMPANY, MUMBAI \n'
p3430
(dp3431
g129
(lp3432
(dp3433
g132
g3430
sg133
F0.709041834
sg134
VNone
p3434
sassS'CLIENT COUNSELLING \n'
p3435
(dp3436
g284
(lp3437
(dp3438
g287
g3435
sg288
F0.186773553
sg289
VNone
p3439
sassS'Cultural Achievements: \n'
p3440
(dp3441
S'intents'
p3442
(lp3443
(dp3444
S'query'
p3445
g3440
sS'score'
p3446
F0.426306874
sS'intent'
p3447
Vskills
p3448
sassS'ADDITIONAL COURSES \n'
p3449
(dp3450
g1244
(lp3451
(dp3452
g1247
g3449
sg1248
F0.241642311
sg1249
VEducation
p3453
sassS'DECLARATION \n'
p3454
(dp3455
g66
(lp3456
(dp3457
g69
g3454
sg70
F0.169131368
sg71
VEducation
p3458
sassS'MOOT COURT COMPETITIONS  \n'
p3459
(dp3460
g869
(lp3461
(dp3462
g872
g3459
sg873
F0.997960746
sg874
VmootCourtLaw
p3463
sassS'62.27 %'
p3464
(dp3465
g93
(lp3466
(dp3467
g96
g3464
sg97
F0.382283866
sg98
VNone
p3468
sassS'EDUCATIONAL QUALIFCATION'
p3469
(dp3470
g1008
(lp3471
(dp3472
g1011
g3469
sg1012
F0.6342228
sg1013
VEducation
p3473
sassS'Moot Court Experience'
p3474
(dp3475
g380
(lp3476
(dp3477
g383
g3474
sg384
F0.9996801
sg385
VmootCourtLaw
p3478
sassS'C H I R A S H R E E   K  \n'
p3479
(dp3480
g1341
(lp3481
(dp3482
g1344
g3479
sg1345
F0.6250302
sg1346
VNone
p3483
sassS'HOBBIES & OTHER INTERESTS \n'
p3484
(dp3485
g57
(lp3486
(dp3487
g60
g3484
sg61
F0.249977082
sg62
VInterests
p3488
sassS'Campus Ambassador \n'
p3489
(dp3490
g230
(lp3491
(dp3492
g233
g3489
sg234
F0.186773553
sg235
VNone
p3493
sassS'PUBLICATIONS: \n'
p3494
(dp3495
g624
(lp3496
(dp3497
g627
g3494
sg628
F0.171096638
sg629
Vskills
p3498
sassS'             January, 2014         \n'
p3499
(dp3500
g1751
(lp3501
(dp3502
g1754
g3499
sg1755
F0.3296071
sg1756
VNone
p3503
sassS'semester in the years 2013-14. \n'
p3504
(dp3505
g230
(lp3506
(dp3507
g233
g3504
sg234
F0.533394456
sg235
VNone
p3508
sassS'State Human Rights Commission'
p3509
(dp3510
g595
(lp3511
(dp3512
g598
g3509
sg599
F0.324501246
sg600
VNone
p3513
sassS'Contact:'
p3514
(dp3515
g380
(lp3516
(dp3517
g383
g3514
sg384
F0.288440615
sg385
Vskills
p3518
sassS'SKILLS: \n'
p3519
(dp3520
g667
(lp3521
(dp3522
g670
g3519
sg671
F0.654641747
sg672
Vskills
p3523
sassS'Workshops: \n'
p3524
(dp3525
g860
(lp3526
(dp3527
g863
g3524
sg864
F0.1663297
sg865
Vskills
p3528
sassS'  Secured: 7.2 C.G.P.A. \n'
p3529
(dp3530
g3
(lp3531
(dp3532
g6
g3529
sg7
F0.7607983
sg8
VNone
p3533
sassS'Chambers of the ASG (Additional So'
p3534
(dp3535
g878
(lp3536
(dp3537
g881
g3534
sg882
F0.52511394
sg883
VNone
p3538
sassS'Law, Ranchi.  \n'
p3539
(dp3540
g66
(lp3541
(dp3542
g69
g3539
sg70
F0.4914261
sg71
VNone
p3543
sassS'AC A D E M IC  PE R FO R M A N C E \n'
p3544
(dp3545
S'intents'
p3546
(lp3547
(dp3548
S'query'
p3549
g3544
sS'score'
p3550
F0.719723642
sS'intent'
p3551
VNone
p3552
sassS'EXAMINATION \n'
p3553
(dp3554
g198
(lp3555
(dp3556
g201
g3553
sg202
F0.191661969
sg203
VEducation
p3557
sassS'+91-7742522206 (Jodhpur)'
p3558
(dp3559
g1419
(lp3560
(dp3561
g1422
g3558
sg1423
F0.4987185
sg1424
VNone
p3562
sassS'HIGH COURT OF MADHYA PRADESH'
p3563
(dp3564
g595
(lp3565
(dp3566
g598
g3563
sg599
F0.43219313
sg600
VNone
p3567
sassS'(January 2-January 23 2014) 3 weeks \n'
p3568
(dp3569
g814
(lp3570
(dp3571
g817
g3568
sg818
F0.570952237
sg819
VNone
p3572
sassS'Palloti College,Raipur. \n'
p3573
(dp3574
g695
(lp3575
(dp3576
g698
g3573
sg699
F0.5979895
sg700
VNone
p3577
sassS'SEMINARS/ WORKSHOPS ATTENDED \n'
p3578
(dp3579
g284
(lp3580
(dp3581
g287
g3578
sg288
F0.297389656
sg289
VNone
p3582
sassS' DEEPAKSHI GARG \n'
p3583
(dp3584
g1950
(lp3585
(dp3586
g1953
g3583
sg1954
F0.238646075
sg1955
VNone
p3587
sassS'Research Experience: \n'
p3588
(dp3589
g152
(lp3590
(dp3591
g155
g3588
sg156
F0.5843195
sg157
VResearch
p3592
sassS'Year (VIII Semester)'
p3593
(dp3594
g878
(lp3595
(dp3596
g881
g3593
sg882
F0.383048981
sg883
VNone
p3597
sassS'Steadfast, Determination, \n'
p3598
(dp3599
g469
(lp3600
(dp3601
g472
g3598
sg473
F0.485101074
sg474
VNone
p3602
sassS'Contact No: 91 9867550055 \n'
p3603
(dp3604
g21
(lp3605
(dp3606
g24
g3603
sg25
F0.3814006
sg26
VNone
p3607
sassS'D.O.B\n'
p3608
(dp3609
g427
(lp3610
(dp3611
g430
g3608
sg431
F0.506920636
sg432
VNone
p3612
sassS'CURRICULUM VITAE \n'
p3613
(dp3614
g483
(lp3615
(dp3616
g486
g3613
sg487
F0.189706534
sg488
VNone
p3617
sassS'December, 2015: 4 weeks] \n'
p3618
(dp3619
g709
(lp3620
(dp3621
g712
g3618
sg713
F0.4886497
sg714
VNone
p3622
sassS'1100, Urban Estate, Phase -1, \n'
p3623
(dp3624
g525
(lp3625
(dp3626
g528
g3623
sg529
F0.646279
sg530
VNone
p3627
sassS'ANNA LIZ THOMAS \n'
p3628
(dp3629
g846
(lp3630
(dp3631
g849
g3628
sg850
F0.259775519
sg851
VNone
p3632
sassS'JOINT EDITOR \n'
p3633
(dp3634
S'intents'
p3635
(lp3636
(dp3637
S'query'
p3638
g3633
sS'score'
p3639
F0.189706534
sS'intent'
p3640
VNone
p3641
sassS'ACHIEVEMENTS     \n'
p3642
(dp3643
g12
(lp3644
(dp3645
g15
g3642
sg16
F0.5962334
sg17
Vskills
p3646
sassS' PERMANENT ADDRESS:  \n'
p3647
(dp3648
g469
(lp3649
(dp3650
g472
g3647
sg473
F0.205745861
sg474
VNone
p3651
sassS'OCCUPATION: Student \n'
p3652
(dp3653
g198
(lp3654
(dp3655
g201
g3652
sg202
F0.2124873
sg203
VNone
p3656
sassS'Hardworking, Confidence, \n'
p3657
(dp3658
g469
(lp3659
(dp3660
g472
g3657
sg473
F0.5050914
sg474
VNone
p3661
sassS'ORGNISATIONAL EXPERIENCE \n'
p3662
(dp3663
g1244
(lp3664
(dp3665
g1247
g3662
sg1248
F0.5698518
sg1249
VworkExperience
p3666
sassS'Senior Advocate Mr. Dushyant Dave \n'
p3667
(dp3668
g111
(lp3669
(dp3670
g114
g3667
sg115
F0.393737435
sg116
VNone
p3671
sassS'EDUCATION AND CERTIFICATION \n'
p3672
(dp3673
g1876
(lp3674
(dp3675
g1879
g3672
sg1880
F0.284763873
sg1881
VEducation
p3676
sassS'    [February, 2017: 2 weeks] \n'
p3677
(dp3678
g207
(lp3679
(dp3680
g210
g3677
sg211
F0.5230291
sg212
VNone
p3681
sassS'Delhi; (May- June 2016).'
p3682
(dp3683
g1629
(lp3684
(dp3685
g1632
g3682
sg1633
F0.622673333
sg1634
VNone
p3686
sassS'PREFERRED PRACTICE'
p3687
(dp3688
g93
(lp3689
(dp3690
g96
g3687
sg97
F0.189706534
sg98
VNone
p3691
sassS'J.N. BOSE & CO., CALCUTTA  \n'
p3692
(dp3693
g12
(lp3694
(dp3695
g15
g3692
sg16
F0.745381653
sg17
VNone
p3696
sassS'Antara Rastogi \n'
p3697
(dp3698
g312
(lp3699
(dp3700
g315
g3697
sg316
F0.236266911
sg317
VNone
p3701
sassS'                   BHADRA G  NAIR \n'
p3702
(dp3703
g321
(lp3704
(dp3705
g324
g3702
sg325
F0.3108754
sg326
VNone
p3706
sassS'[March-April, 2016: 4weeks] \n'
p3707
(dp3708
g207
(lp3709
(dp3710
g210
g3707
sg211
F0.575665832
sg212
VNone
p3711
sassS'Personal Interests \n'
p3712
(dp3713
g1022
(lp3714
(dp3715
g1025
g3712
sg1026
F0.3000342
sg1027
VInterests
p3716
sassS'Member, Core O'
p3717
(dp3718
g878
(lp3719
(dp3720
g881
g3717
sg882
F0.390523851
sg883
VNone
p3721
sassS'Pankaj Aseri \n'
p3722
(dp3723
g912
(lp3724
(dp3725
g915
g3722
sg916
F0.238850847
sg917
VNone
p3726
sassS'dhruvinsdossani@gmail.com'
p3727
(dp3728
g1008
(lp3729
(dp3730
g1011
g3727
sg1012
F0.522597
sg1013
VNone
p3731
sassS'work experience in the USA m'
p3732
(dp3733
S'intents'
p3734
(lp3735
(dp3736
S'query'
p3737
g3732
sS'score'
p3738
F0.7707077
sS'intent'
p3739
VworkExperience
p3740
sassS'III.  Model United Nations \n'
p3741
(dp3742
g823
(lp3743
(dp3744
g826
g3741
sg827
F0.4304389
sg828
VNone
p3745
sassS'2014) (8 weeks)\n'
p3746
(dp3747
g1540
(lp3748
(dp3749
g1543
g3746
sg1544
F0.435430229
sg1545
VNone
p3750
sassS'D I P A Y A N    C H O W D H U R Y \n'
p3751
(dp3752
g1751
(lp3753
(dp3754
g1754
g3751
sg1755
F0.7414195
sg1756
VNone
p3755
sassS'Internships \n'
p3756
(dp3757
g404
(lp3758
(dp3759
g407
g3756
sg408
F0.269267142
sg409
VInternship
p3760
sassS'Lakshmikumaran & Sridharan, New Delhi \n'
p3761
(dp3762
g84
(lp3763
(dp3764
g87
g3761
sg88
F0.7939516
sg89
VNone
p3765
sassS'Place:  Noida \n'
p3766
(dp3767
g239
(lp3768
(dp3769
g242
g3766
sg243
F0.203758344
sg244
VNone
p3770
sassS'Co-Curricular Activities'
p3771
(dp3772
g39
(lp3773
(dp3774
g42
g3771
sg43
F0.92307657
sg44
VextraCurricular
p3775
sassS'HOBBIES AND INTERESTS \n'
p3776
(dp3777
g248
(lp3778
(dp3779
g251
g3776
sg252
F0.271773934
sg253
VInterests
p3780
sassS'7767822494'
p3781
(dp3782
g548
(lp3783
(dp3784
g551
g3781
sg552
F0.499958724
sg553
VNone
p3785
sassS'Cyril Amarchand Mangaldas, Mumbai \n'
p3786
(dp3787
g21
(lp3788
(dp3789
g24
g3786
sg25
F0.6154264
sg26
VNone
p3790
sassS'Qualification  \n'
p3791
(dp3792
g2436
(lp3793
(dp3794
g2439
g3791
sg2440
F0.9534061
sg2441
VEducation
p3795
sassS'CONFERENCES  & PAPER PRESENTATIONS   \n'
p3796
(dp3797
g1950
(lp3798
(dp3799
g1953
g3796
sg1954
F0.394814461
sg1955
VNone
p3800
sassS'Mobile - +91-9999777008 \n'
p3801
(dp3802
g667
(lp3803
(dp3804
g670
g3801
sg671
F0.430482656
sg672
VNone
p3805
sassS'ARJUN AGARWAL \n'
p3806
(dp3807
g1123
(lp3808
(dp3809
g1126
g3806
sg1127
F0.189706534
sg1128
VNone
p3810
sassS'July 2015)'
p3811
(dp3812
g75
(lp3813
(dp3814
g78
g3811
sg79
F0.259775519
sg80
VNone
p3815
sassS'WORK PROFILE /'
p3816
(dp3817
g93
(lp3818
(dp3819
g96
g3816
sg97
F0.896570444
sg98
VworkExperience
p3820
sassS'CO-CURRICULAR ACHIEVEMENTS \n'
p3821
(dp3822
g1137
(lp3823
(dp3824
g1140
g3821
sg1141
F0.3697591
sg1142
VextraCurricular
p3825
sassS'BASAWA PRASAD KUNALE \n'
p3826
(dp3827
S'intents'
p3828
(lp3829
(dp3830
S'query'
p3831
g3826
sS'score'
p3832
F0.363302618
sS'intent'
p3833
VNone
p3834
sassS'EXTRA-CURRICULAR \n'
p3835
(dp3836
g1842
(lp3837
(dp3838
g1845
g3835
sg1846
F0.8082924
sg1847
VextraCurricular
p3839
sassS'Extra-Curricular Activities: \n'
p3840
(dp3841
g152
(lp3842
(dp3843
g155
g3840
sg156
F0.937160552
sg157
VextraCurricular
p3844
sassS',Chandigarh'
p3845
(dp3846
g1267
(lp3847
(dp3848
g1270
g3845
sg1271
F0.253505081
sg1272
VNone
p3849
sassS'Languages Known \n'
p3850
(dp3851
g362
(lp3852
(dp3853
g365
g3850
sg366
F0.232874662
sg367
Vlanguages
p3854
sassS'Profile :'
p3855
(dp3856
g93
(lp3857
(dp3858
g96
g3855
sg97
F0.207759634
sg98
Vskills
p3859
sassS'Page 3 of 3 \n'
p3860
(dp3861
g846
(lp3862
(dp3863
g849
g3860
sg850
F0.484059036
sg851
VNone
p3864
sassS'SCHOOL LEVEL: ARMY PUBLIC SCHOOL'
p3865
(dp3866
g501
(lp3867
(dp3868
g504
g3865
sg505
F0.4408689
sg506
VNone
p3869
sassS'Chambers of Mr. Mahesh Jethmalani \n'
p3870
(dp3871
g21
(lp3872
(dp3873
g24
g3870
sg25
F0.6458498
sg26
VNone
p3874
sassS'    Jul, 2016 \n'
p3875
(dp3876
g84
(lp3877
(dp3878
g87
g3875
sg88
F0.310201645
sg89
VNone
p3879
sassS'Delhi \n'
p3880
(dp3881
g57
(lp3882
(dp3883
g60
g3880
sg61
F0.18575871
sg62
VNone
p3884
sassS'OBJECTIVE \n'
p3885
(dp3886
g248
(lp3887
(dp3888
g251
g3885
sg252
F0.169131368
sg253
VEducation
p3889
sassS'YEAR \n'
p3890
(dp3891
g667
(lp3892
(dp3893
g670
g3890
sg671
F0.191661969
sg672
VEducation
p3894
sassS'HOBBIES\n'
p3895
(dp3896
g1540
(lp3897
(dp3898
g1543
g3895
sg1544
F0.533040643
sg1545
Vskills
p3899
sassS'ACHIEVEMENTS\n'
p3900
(dp3901
g2977
(lp3902
(dp3903
g2980
g3900
sg2981
F0.5962543
sg2982
Vskills
p3904
sassS'CBSE Board \n'
p3905
(dp3906
g230
(lp3907
(dp3908
g233
g3905
sg234
F0.186773553
sg235
VNone
p3909
sassS'November 2016 \n'
p3910
(dp3911
g1191
(lp3912
(dp3913
g1194
g3910
sg1195
F0.189706534
sg1196
VNone
p3914
sassS'Co-Curricular Activities: \n'
p3915
(dp3916
g999
(lp3917
(dp3918
g1002
g3915
sg1003
F0.9283748
sg1004
VextraCurricular
p3919
sassS'PRIOR INTERNSHIP EXPERIENCE \n'
p3920
(dp3921
S'intents'
p3922
(lp3923
(dp3924
S'query'
p3925
g3920
sS'score'
p3926
F0.336784065
sS'intent'
p3927
VInternship
p3928
sassS'Mangaldas (SAM), \n'
p3929
(dp3930
g57
(lp3931
(dp3932
g60
g3929
sg61
F0.5206437
sg62
VNone
p3933
sassS'Responsibilities:  \n'
p3934
(dp3935
g248
(lp3936
(dp3937
g251
g3934
sg252
F0.170412421
sg253
Vskills
p3938
sassS'hambers of'
p3939
(dp3940
g586
(lp3941
(dp3942
g589
g3939
sg590
F0.84958297
sg591
VNone
p3943
sassS'Semesters \n'
p3944
(dp3945
g66
(lp3946
(dp3947
g69
g3944
sg70
F0.499958724
sg71
VNone
p3948
sassS'at the c'
p3949
(dp3950
g586
(lp3951
(dp3952
g589
g3949
sg590
F0.259775519
sg591
VNone
p3953
sassS'PUBLICATIONS AND PAPER PRESENTATIONS  \n'
p3954
(dp3955
g823
(lp3956
(dp3957
g826
g3954
sg827
F0.318437636
sg828
VNone
p3958
sassS'Degree  \n'
p3959
(dp3960
g180
(lp3961
(dp3962
g183
g3959
sg184
F0.169131368
sg185
VEducation
p3963
sassS'Competition- \n'
p3964
(dp3965
g2103
(lp3966
(dp3967
g2106
g3964
sg2107
F0.158446908
sg2108
VNone
p3968
sassS'COMMUNITY SERVICE \n'
p3969
(dp3970
g1244
(lp3971
(dp3972
g1247
g3969
sg1248
F0.189706534
sg1249
VNone
p3973
sassS'PROFILE SUMMARY \n'
p3974
(dp3975
g371
(lp3976
(dp3977
g374
g3974
sg375
F0.142782345
sg376
VNone
p3978
sassS'QUALIFICATION  \n'
p3979
(dp3980
g248
(lp3981
(dp3982
g251
g3979
sg252
F0.9534061
sg253
VEducation
p3983
sassS'dates, departmental works ) in'
p3984
(dp3985
g93
(lp3986
(dp3987
g96
g3984
sg97
F0.559978
sg98
VNone
p3988
sassS'RESPONSIBILITIES \n'
p3989
(dp3990
g869
(lp3991
(dp3992
g872
g3989
sg873
F0.169131368
sg874
VEducation
p3993
sassS'SEMINARS AND WORKSHOPS \n'
p3994
(dp3995
S'intents'
p3996
(lp3997
(dp3998
S'query'
p3999
g3994
sS'score'
p4000
F0.259775519
sS'intent'
p4001
VNone
p4002
sassS'Diploma / Certificate \n'
p4003
(dp4004
g138
(lp4005
(dp4006
g141
g4003
sg142
F0.23282145
sg143
VNone
p4007
sassS'Grand Intra trials, Amity Law School'
p4008
(dp4009
g1438
(lp4010
(dp4011
g1441
g4008
sg1442
F0.582818031
sg1443
VNone
p4012
sassS'CA Nandan Sanjay Soni \n'
p4013
(dp4014
g30
(lp4015
(dp4016
g33
g4013
sg34
F0.318437636
sg35
VNone
p4017
sassS'Language Proficiency \n'
p4018
(dp4019
g483
(lp4020
(dp4021
g486
g4018
sg487
F0.189706534
sg488
VNone
p4022
sassS'Phone No:'
p4023
(dp4024
g1419
(lp4025
(dp4026
g1422
g4023
sg1423
F0.221800268
sg1424
Vskills
p4027
sassS'state). \n'
p4028
(dp4029
g1760
(lp4030
(dp4031
g1763
g4028
sg1764
F0.334318161
sg1765
VNone
p4032
sassS'National University of \n'
p4033
(dp4034
g66
(lp4035
(dp4036
g69
g4033
sg70
F0.4287547
sg71
VNone
p4037
sassS'Shardul Amarchand Mangaldas & Co. \n'
p4038
(dp4039
g111
(lp4040
(dp4041
g114
g4038
sg115
F0.623222053
sg116
VNone
p4042
sassS'65.33 %'
p4043
(dp4044
g93
(lp4045
(dp4046
g96
g4043
sg97
F0.382437319
sg98
VNone
p4047
sassS', Jabalpur'
p4048
(dp4049
g595
(lp4050
(dp4051
g598
g4048
sg599
F0.242880687
sg600
VNone
p4052
sassS'CO-CURRICULARS \n'
p4053
(dp4054
g1191
(lp4055
(dp4056
g1194
g4053
sg1195
F0.8077629
sg1196
VextraCurricular
p4057
sassS' Hitchup \n'
p4058
(dp4059
g790
(lp4060
(dp4061
g793
g4058
sg794
F0.499958724
sg795
VNone
p4062
sassS'Board / University \n'
p4063
(dp4064
g492
(lp4065
(dp4066
g495
g4063
sg496
F0.224415123
sg497
VNone
p4067
sassS'Ayush Agarwal \n'
p4068
(dp4069
g138
(lp4070
(dp4071
g141
g4068
sg142
F0.189706534
sg143
VNone
p4072
sassS'Academic Achievements \n'
p4073
(dp4074
g790
(lp4075
(dp4076
g793
g4073
sg794
F0.318461061
sg795
Vskills
p4077
sassS'12th standard'
p4078
(dp4079
g878
(lp4080
(dp4081
g881
g4078
sg882
F0.189706534
sg883
VNone
p4082
sassS'Date :  May 27, 2016 \n'
p4083
(dp4084
g404
(lp4085
(dp4086
g407
g4083
sg408
F0.443010658
sg409
VNone
p4087
sassS'                           July 2013 \n'
p4088
(dp4089
g676
(lp4090
(dp4091
g679
g4088
sg680
F0.186773553
sg681
VNone
p4092
sassS'Time Period / Progress \n'
p4093
(dp4094
g180
(lp4095
(dp4096
g183
g4093
sg184
F0.292499
sg185
VNone
p4097
sassS'Associates, Bangalore'
p4098
(dp4099
g380
(lp4100
(dp4101
g383
g4098
sg384
F0.365958452
sg385
VNone
p4102
sassS'II.  Moot Court Competition \n'
p4103
(dp4104
g823
(lp4105
(dp4106
g826
g4103
sg827
F0.9823829
sg828
VmootCourtLaw
p4107
sassS'Mr. Salman Khurshid,'
p4108
(dp4109
g1438
(lp4110
(dp4111
g1441
g4108
sg1442
F0.5828102
sg1443
VNone
p4112
sassS'(2011- 2016)'
p4113
(dp4114
g293
(lp4115
(dp4116
g296
g4113
sg297
F0.353982359
sg298
VNone
p4117
sassS' Resume \n'
p4118
(dp4119
g695
(lp4120
(dp4121
g698
g4118
sg699
F0.169131368
sg700
VEducation
p4122
sassS'Seminars and Workshops'
p4123
(dp4124
g380
(lp4125
(dp4126
g383
g4123
sg384
F0.259775519
sg385
VNone
p4127
sassS'Consultants'
p4128
(dp4129
g1267
(lp4130
(dp4131
g1270
g4128
sg1271
F0.169131368
sg1272
VEducation
p4132
sassS'OBJECTIVE:  \n'
p4133
(dp4134
g667
(lp4135
(dp4136
g670
g4133
sg671
F0.182047635
sg672
Vskills
p4137
sassS': 2 months]'
p4138
(dp4139
g548
(lp4140
(dp4141
g551
g4138
sg552
F0.2744379
sg553
VNone
p4142
sassS'AWARDS AND \n'
p4143
(dp4144
g1355
(lp4145
(dp4146
g1358
g4143
sg1359
F0.186773553
sg1360
VNone
p4147
sassS'ODM PUBLIC \n'
p4148
(dp4149
g66
(lp4150
(dp4151
g69
g4148
sg70
F0.189706534
sg71
VNone
p4152
sassS'ACADEMICS \n'
p4153
(dp4154
g814
(lp4155
(dp4156
g817
g4153
sg818
F0.919703
sg819
VEducation
p4157
sassS', Singrauli'
p4158
(dp4159
g75
(lp4160
(dp4161
g78
g4158
sg79
F0.481809258
sg80
VNone
p4162
sassS'ACADEMIC PUBLICATIONS: \n'
p4163
(dp4164
g171
(lp4165
(dp4166
g174
g4163
sg175
F0.219377756
sg176
VNone
p4167
sassS', 2017'
p4168
(dp4169
g548
(lp4170
(dp4171
g551
g4168
sg552
F0.245067611
sg553
VNone
p4172
sassS'B.A. LL.B (Intellectual Property Rights'
p4173
(dp4174
g878
(lp4175
(dp4176
g881
g4173
sg882
F0.695320666
sg883
VNone
p4177
sassS'Sridharan. \n'
p4178
(dp4179
g695
(lp4180
(dp4181
g698
g4178
sg699
F0.655131936
sg700
VNone
p4182
sassS'WORK EXPERIENCE - INTERNSHIPS \n'
p4183
(dp4184
g248
(lp4185
(dp4186
g251
g4183
sg252
F0.310912967
sg253
VworkExperience
p4187
sassS'licitor General of India) Pinky'
p4188
(dp4189
g878
(lp4190
(dp4191
g881
g4188
sg882
F0.6039295
sg883
VNone
p4192
sassS'Moot Court Competitions \n'
p4193
(dp4194
g48
(lp4195
(dp4196
g51
g4193
sg52
F0.997960746
sg53
VmootCourtLaw
p4197
sassS'June, 2016 \n'
p4198
(dp4199
g21
(lp4200
(dp4201
g24
g4198
sg25
F0.322634965
sg26
VNone
p4202
sassS'OTHER  \n'
p4203
(dp4204
g1355
(lp4205
(dp4206
g1358
g4203
sg1359
F0.284744531
sg1360
Vskills
p4207
sassS'Bhopal [2'
p4208
(dp4209
g548
(lp4210
(dp4211
g551
g4208
sg552
F0.259775519
sg553
VNone
p4212
sassS'Tatva Legal, Gurgaon \n'
p4213
(dp4214
g57
(lp4215
(dp4216
g60
g4213
sg61
F0.4514412
sg62
VNone
p4217
sassS'AVIPRA CHAMBERS, New Delhi  \n'
p4218
(dp4219
g3086
(lp4220
(dp4221
g3089
g4218
sg3090
F0.5814669
sg3091
VNone
p4222
sassS'Adarsh'
p4223
(dp4224
g39
(lp4225
(dp4226
g42
g4223
sg43
F0.169131368
sg44
VEducation
p4227
sassS'Mr. Vineet Malhotra,'
p4228
(dp4229
g1438
(lp4230
(dp4231
g1441
g4228
sg1442
F0.48083064
sg1443
VNone
p4232
sassS'PERSONAL DETAILS\n'
p4233
(dp4234
g418
(lp4235
(dp4236
g421
g4233
sg422
F0.186773553
sg423
VNone
p4237
sassS'CHILD RIGHTS AND YOU, KOLKATA \n'
p4238
(dp4239
g129
(lp4240
(dp4241
g132
g4238
sg133
F0.499087155
sg134
VNone
p4242
sassS'KIIT International MUN 2014'
p4243
(dp4244
g75
(lp4245
(dp4246
g78
g4243
sg79
F0.3424352
sg80
VNone
p4247
sassS' PROJECTS \n'
p4248
(dp4249
g492
(lp4250
(dp4251
g495
g4248
sg496
F0.169131368
sg497
VEducation
p4252
sassS'Strengths: \n'
p4253
(dp4254
g404
(lp4255
(dp4256
g407
g4253
sg408
F0.17198281
sg409
Vskills
p4257
sassS'ffice of'
p4258
(dp4259
g1031
(lp4260
(dp4261
g1034
g4258
sg1035
F0.84958297
sg1036
VNone
p4262
sassS'DEBATES AND CO-CURRICULARS\n'
p4263
(dp4264
g658
(lp4265
(dp4266
g661
g4263
sg662
F0.3643583
sg663
VNone
p4267
sassS'RELEVANT COURSEWORK:'
p4268
(dp4269
g1008
(lp4270
(dp4271
g1011
g4268
sg1012
F0.223240018
sg1013
VNone
p4272
sassS'AZB & Partners, Mumbai \n'
p4273
(dp4274
g21
(lp4275
(dp4276
g24
g4273
sg25
F0.6761879
sg26
VNone
p4277
sassS'Courses: \n'
p4278
(dp4279
g3546
(lp4280
(dp4281
g3549
g4278
sg3550
F0.2040356
sg3551
Vskills
p4282
sassS'Year(s)\n'
p4283
(dp4284
g418
(lp4285
(dp4286
g421
g4283
sg422
F0.309249938
sg423
VNone
p4287
sassS'DELSHAD KAPADIA\n'
p4288
(dp4289
g2573
(lp4290
(dp4291
g2576
g4288
sg2577
F0.236091286
sg2578
VNone
p4292
sassS'E OF COMPANY SECRETARIES OF INDIA,'
p4293
(dp4294
g595
(lp4295
(dp4296
g598
g4293
sg599
F0.689105153
sg600
VNone
p4297
sassS'Hobbies/Interests: \n'
p4298
(dp4299
g257
(lp4300
(dp4301
g260
g4298
sg261
F0.26975745
sg262
Vskills
p4302
sassS'Amrit Vidyalaya, Kalol (PMS), Gujarat \n'
p4303
(dp4304
g940
(lp4305
(dp4306
g943
g4303
sg944
F0.650330961
sg945
VNone
p4307
sassS'PERSONAL SKILLS \n'
p4308
(dp4309
g30
(lp4310
(dp4311
g33
g4308
sg34
F0.325544536
sg35
Vskills
p4312
sassS'Asian School of Cyber Laws, Pune'
p4313
(dp4314
g380
(lp4315
(dp4316
g383
g4313
sg384
F0.658872545
sg385
VNone
p4317
sassS'GRADE \n'
p4318
(dp4319
g667
(lp4320
(dp4321
g670
g4318
sg671
F0.191661969
sg672
VEducation
p4322
sassS'a High Court (16'
p4323
(dp4324
g75
(lp4325
(dp4326
g78
g4323
sg79
F0.322147042
sg80
VNone
p4327
sassS'BRYAN PILLAI\n'
p4328
(dp4329
g733
(lp4330
(dp4331
g736
g4328
sg737
F0.186773553
sg738
VNone
p4332
sassS'Page 1 of 3 \n'
p4333
(dp4334
g846
(lp4335
(dp4336
g849
g4333
sg850
F0.5442108
sg851
VNone
p4337
sassS', High Court of Delhi (May-June, 2014)'
p4338
(dp4339
g878
(lp4340
(dp4341
g881
g4338
sg882
F0.7643127
sg883
VNone
p4342
sassS'60.5% \n'
p4343
(dp4344
g30
(lp4345
(dp4346
g33
g4343
sg34
F0.3909924
sg35
VNone
p4347
sassS'replies to'
p4348
(dp4349
g878
(lp4350
(dp4351
g881
g4348
sg882
F0.189706534
sg883
VNone
p4352
sassS'    Jul, 2015 \n'
p4353
(dp4354
g84
(lp4355
(dp4356
g87
g4353
sg88
F0.315084368
sg89
VNone
p4357
sassS'Dave & Girish & Company, Mumbai  \n'
p4358
(dp4359
g1191
(lp4360
(dp4361
g1194
g4358
sg1195
F0.686728537
sg1196
VNone
p4362
sassS'ORGANISATIONAL ACTIVITIES: \n'
p4363
(dp4364
g3442
(lp4365
(dp4366
g3445
g4363
sg3446
F0.236731023
sg3447
VextraCurricular
p4367
sassS'EXTRA CURRICULARS \n'
p4368
(dp4369
g1191
(lp4370
(dp4371
g1194
g4368
sg1195
F0.7466607
sg1196
VextraCurricular
p4372
sassS'ACADEMIC ACHIVEMENTS \n'
p4373
(dp4374
g230
(lp4375
(dp4376
g233
g4373
sg234
F0.245764777
sg235
VNone
p4377
sassS'INTERNSHIP'
p4378
(dp4379
g1267
(lp4380
(dp4381
g1270
g4378
sg1271
F0.525769
sg1272
VInternship
p4382
sassS'Research papers- \n'
p4383
(dp4384
g2103
(lp4385
(dp4386
g2106
g4383
sg2107
F1.0
sg2108
VResearch
p4387
sassS'Delhi; (November- December'
p4388
(dp4389
g1629
(lp4390
(dp4391
g1632
g4388
sg1633
F0.459115922
sg1634
VNone
p4392
sassS'HOBBIES AND INTERESTS: \n'
p4393
(dp4394
g171
(lp4395
(dp4396
g174
g4393
sg175
F0.299190164
sg176
Vskills
p4397
sassS'PAPER PRESENTATION & SEMINARS \n'
p4398
(dp4399
g180
(lp4400
(dp4401
g183
g4398
sg184
F0.397251874
sg185
VNone
p4402
sassS'ACADEMIC QUALIFICATIONS\n'
p4403
(dp4404
g658
(lp4405
(dp4406
g661
g4403
sg662
F0.6373812
sg663
VEducation
p4407
sassS'Chikati, Brahmapur town, \n'
p4408
(dp4409
g469
(lp4410
(dp4411
g472
g4408
sg473
F0.652421653
sg474
VNone
p4412
sassS'Acquisition). \n'
p4413
(dp4414
S'intents'
p4415
(lp4416
(dp4417
S'query'
p4418
g4413
sS'score'
p4419
F0.317995638
sS'intent'
p4420
VNone
p4421
sassS'Brief work profile \n'
p4422
(dp4423
g3
(lp4424
(dp4425
g6
g4422
sg7
F0.395792574
sg8
VworkExperience
p4426
sassS'PROFESSIONAL COURSES \n'
p4427
(dp4428
g3922
(lp4429
(dp4430
g3925
g4427
sg3926
F0.189706534
sg3927
VNone
p4431
sassS'(MERGERS AND ACQUISITION)\n'
p4432
(dp4433
g1540
(lp4434
(dp4435
g1543
g4432
sg1544
F0.383048981
sg1545
VNone
p4436
sassS'Legal intern \n'
p4437
(dp4438
g3442
(lp4439
(dp4440
g3445
g4437
sg3446
F0.172231689
sg3447
VInternship
p4441
sassS', Bangalore'
p4442
(dp4443
g1031
(lp4444
(dp4445
g1034
g4442
sg1035
F0.3206876
sg1036
VNone
p4446
sassS'Performance \n'
p4447
(dp4448
g284
(lp4449
(dp4450
g287
g4447
sg288
F0.191661969
sg289
VEducation
p4451
sassS'LANGUAGES\n'
p4452
(dp4453
g1540
(lp4454
(dp4455
g1543
g4452
sg1544
F0.467207074
sg1545
Vlanguages
p4456
sassS'SCHOLASTIC ACHIEVEMENTS \n'
p4457
(dp4458
g152
(lp4459
(dp4460
g155
g4457
sg156
F0.263561577
sg157
VEducation
p4461
sassS'WO R K  EX PE R IE N C E   \n'
p4462
(dp4463
g3546
(lp4464
(dp4465
g3549
g4462
sg3550
F0.5929649
sg3551
VNone
p4466
sassS'Republic on December 18, 2013.   \n'
p4467
(dp4468
g312
(lp4469
(dp4470
g315
g4467
sg316
F0.5949326
sg317
VNone
p4471
sassS'December 2014 \n'
p4472
(dp4473
g846
(lp4474
(dp4475
g849
g4472
sg850
F0.189706534
sg851
VNone
p4476
sassS'Seminars and Other Workshops  \n'
p4477
(dp4478
g790
(lp4479
(dp4480
g793
g4477
sg794
F0.304279
sg795
VNone
p4481
sassS'      January, 2014         \n'
p4482
(dp4483
g1751
(lp4484
(dp4485
g1754
g4482
sg1755
F0.3296071
sg1756
VNone
p4486
sassS'Board/University\n'
p4487
(dp4488
g418
(lp4489
(dp4490
g421
g4487
sg422
F0.220645741
sg423
VNone
p4491
sassS'Corporate Lexport, Bangalore  \n'
p4492
(dp4493
g1191
(lp4494
(dp4495
g1194
g4492
sg1195
F0.507394254
sg1196
VNone
p4496
sassS'knowledge, information and belief. \n'
p4497
(dp4498
g248
(lp4499
(dp4500
g251
g4497
sg252
F0.54631
sg253
VNone
p4501
sassS'CHINMAY SINGH \n'
p4502
(dp4503
g239
(lp4504
(dp4505
g242
g4502
sg243
F0.186773553
sg244
VNone
p4506
sassS'ORGANISATIONAL ACTIVITIES  \n'
p4507
(dp4508
g2544
(lp4509
(dp4510
g2547
g4507
sg2548
F0.3399939
sg2549
VextraCurricular
p4511
sassS'Semester 2: 6.50 \n'
p4512
(dp4513
g348
(lp4514
(dp4515
g351
g4512
sg352
F0.486746252
sg353
VNone
p4516
sassS'- June'
p4517
(dp4518
g586
(lp4519
(dp4520
g589
g4517
sg590
F0.155817419
sg591
VNone
p4521
sassS'email-'
p4522
(dp4523
g293
(lp4524
(dp4525
g296
g4522
sg297
F0.1483753
sg298
VNone
p4526
sassS'References \n'
p4527
(dp4528
g912
(lp4529
(dp4530
g915
g4527
sg916
F0.169131368
sg917
VEducation
p4531
sassS'ADDITIONAL QUALIFICATIONS \n'
p4532
(dp4533
g1663
(lp4534
(dp4535
g1666
g4532
sg1667
F0.9150022
sg1668
VEducation
p4536
sassS'PROFESSIONAL SUMMARY \n'
p4537
(dp4538
g239
(lp4539
(dp4540
g242
g4537
sg243
F0.186773553
sg244
VNone
p4541
sassS'Panwar) (2014) \n'
p4542
(dp4543
g1089
(lp4544
(dp4545
g1092
g4542
sg1093
F0.434451431
sg1094
VNone
p4546
sassS'Email ID: divya94gupta@gmail.com'
p4547
(dp4548
g1419
(lp4549
(dp4550
g1422
g4547
sg1423
F0.577965736
sg1424
VNone
p4551
sassS' ( 30th August- 30th September 2016)  \n'
p4552
(dp4553
g814
(lp4554
(dp4555
g817
g4552
sg818
F0.5013851
sg819
VNone
p4556
sassS'related to law.  \n'
p4557
(dp4558
g230
(lp4559
(dp4560
g233
g4557
sg234
F0.41262
sg235
VNone
p4561
sassS'SEMINARS AND OTHER WORKSHOPS \n'
p4562
(dp4563
g695
(lp4564
(dp4565
g698
g4562
sg699
F0.304279
sg700
VNone
p4566
sassS'JINDAL GLOBAL LAW SCHOOL'
p4567
(dp4568
g2412
(lp4569
(dp4570
g2415
g4567
sg2416
F0.38971138
sg2417
VNone
p4571
sassS'Dhrn.sehgal@gmail.com. \n'
p4572
(dp4573
g525
(lp4574
(dp4575
g528
g4572
sg529
F0.6632074
sg530
VNone
p4576
sassS'PAST INTERNSHIP EXPERIENCES: \n'
p4577
(dp4578
g221
(lp4579
(dp4580
g224
g4577
sg225
F0.367056549
sg226
VInternship
p4581
sassS'INTERNSHIP EXPERIENCE \n'
p4582
(dp4583
g695
(lp4584
(dp4585
g698
g4582
sg699
F0.460007131
sg700
VInternship
p4586
sassS'AYUSHI BANSAL \n'
p4587
(dp4588
g539
(lp4589
(dp4590
g542
g4587
sg543
F0.234670356
sg544
VNone
p4591
sassS'Under the'
p4592
(dp4593
g595
(lp4594
(dp4595
g598
g4592
sg599
F0.141797245
sg600
VInternship
p4596
sassS'CO-CURRICULAR ACTIVITIES \n'
p4597
(dp4598
g57
(lp4599
(dp4600
g60
g4597
sg61
F0.92307657
sg62
VextraCurricular
p4601
sassS'Kharagpur'
p4602
(dp4603
g75
(lp4604
(dp4605
g78
g4602
sg79
F0.169131368
sg80
VEducation
p4606
sassS'RESUME\n'
p4607
(dp4608
g1487
(lp4609
(dp4610
g1490
g4607
sg1491
F0.169131368
sg1492
VEducation
p4611
sassS'Career Objective \n'
p4612
(dp4613
g362
(lp4614
(dp4615
g365
g4612
sg366
F0.186773553
sg367
VNone
p4616
sassS'Creative, Adaptive, \n'
p4617
(dp4618
g469
(lp4619
(dp4620
g472
g4617
sg473
F0.413733184
sg474
VNone
p4621
sassS'ASSOCIATE POSITION AT TRILEGAL \n'
p4622
(dp4623
g1215
(lp4624
(dp4625
g1218
g4622
sg1219
F0.2131691
sg1220
VNone
p4626
sassS'AYUSHI VERMA \n'
p4627
(dp4628
g2039
(lp4629
(dp4630
g2042
g4627
sg2043
F0.238107488
sg2044
VNone
p4631
sassS'survey on policy-related questions'
p4632
(dp4633
g878
(lp4634
(dp4635
g881
g4632
sg882
F0.406711578
sg883
VNone
p4636
sassS'J. Sagar Associates, Gurgaon \n'
p4637
(dp4638
g84
(lp4639
(dp4640
g87
g4637
sg88
F0.529688
sg89
VNone
p4641
sassS'EXPERIENCE'
p4642
(dp4643
g1267
(lp4644
(dp4645
g1270
g4642
sg1271
F0.6403494
sg1272
VworkExperience
p4646
sassS'88.8% \n'
p4647
(dp4648
g66
(lp4649
(dp4650
g69
g4647
sg70
F0.391962469
sg71
VNone
p4651
sassS'INSTITUTION \n'
p4652
(dp4653
g248
(lp4654
(dp4655
g251
g4652
sg252
F0.169131368
sg253
VEducation
p4656
sassS'EDUCATIONAL QUALIFICATIONS \n'
p4657
(dp4658
g312
(lp4659
(dp4660
g315
g4657
sg316
F0.951864243
sg317
VEducation
p4661
sassS'MOOT COURT ACHIEVEMENTS: \n'
p4662
(dp4663
g198
(lp4664
(dp4665
g201
g4662
sg202
F0.99489
sg203
VmootCourtLaw
p4666
sassS'W O R K  E X P E R I E N C E    \n'
p4667
(dp4668
g3828
(lp4669
(dp4670
g3831
g4667
sg3832
F0.697163343
sg3833
VNone
p4671
sassS'5.  Murari Tiwari and Co. \n'
p4672
(dp4673
g1022
(lp4674
(dp4675
g1025
g4672
sg1026
F0.5817324
sg1027
VNone
p4676
sassS'MARITAL STATUS\n'
p4677
(dp4678
g362
(lp4679
(dp4680
g365
g4677
sg366
F0.186773553
sg367
VNone
p4681
sassS'EDUCATIONAL QUALIFCATION \n'
p4682
(dp4683
g695
(lp4684
(dp4685
g698
g4682
sg699
F0.6342228
sg700
VEducation
p4686
sassS'J Sagar and Associates, New Delhi    \n'
p4687
(dp4688
g1191
(lp4689
(dp4690
g1194
g4687
sg1195
F0.586816251
sg1196
VNone
p4691
sassS'EXTRA CURRICULAR ACTIVITIES: \n'
p4692
(dp4693
g446
(lp4694
(dp4695
g449
g4692
sg450
F0.8499718
sg451
VextraCurricular
p4696
sassS'Sixth Position'
p4697
(dp4698
g878
(lp4699
(dp4700
g881
g4697
sg882
F0.329877853
sg883
Vskills
p4701
sassS'Higher  Senior  Secondary \n'
p4702
(dp4703
g230
(lp4704
(dp4705
g233
g4702
sg234
F0.255179465
sg235
VNone
p4706
sassS'% / CGPA \n'
p4707
(dp4708
g492
(lp4709
(dp4710
g495
g4707
sg496
F0.287448317
sg497
VNone
p4711
sassS'            July, 2014 \n'
p4712
(dp4713
g1751
(lp4714
(dp4715
g1754
g4712
sg1755
F0.337917477
sg1756
VNone
p4716
sassS'TEACHING ASSISTANTSHIP'
p4717
(dp4718
g3338
(lp4719
(dp4720
g3341
g4717
sg3342
F0.2512582
sg3343
VNone
p4721
sassS'CURRICULUM VITAE'
p4722
(dp4723
g878
(lp4724
(dp4725
g881
g4722
sg882
F0.189706534
sg883
VNone
p4726
sassS'CERTIFICATE COURSE \n'
p4727
(dp4728
g1842
(lp4729
(dp4730
g1845
g4727
sg1846
F0.189706534
sg1847
VNone
p4731
sassS'Delhi. \n'
p4732
(dp4733
g1842
(lp4734
(dp4735
g1845
g4732
sg1846
F0.382284164
sg1847
VNone
p4736
sassS'63.83 %'
p4737
(dp4738
g93
(lp4739
(dp4740
g96
g4737
sg97
F0.378716439
sg98
VNone
p4741
sassS'LLP, Kolkata (May-June, 2015)'
p4742
(dp4743
g878
(lp4744
(dp4745
g881
g4742
sg882
F0.636114538
sg883
VNone
p4746
sassS'Personal Details \n'
p4747
(dp4748
g362
(lp4749
(dp4750
g365
g4747
sg366
F0.186773553
sg367
VNone
p4751
sassS'III Semester'
p4752
(dp4753
g586
(lp4754
(dp4755
g589
g4752
sg590
F0.189706534
sg591
VNone
p4756
sassS'Honest and Sincere \n'
p4757
(dp4758
g469
(lp4759
(dp4760
g472
g4757
sg473
F0.255179465
sg474
VNone
p4761
sassS'PUBLICATIONS AND RESEARCH   \n'
p4762
(dp4763
g284
(lp4764
(dp4765
g287
g4762
sg288
F0.5638319
sg289
VResearch
p4766
sassS'ANKITA SANGWAN \n'
p4767
(dp4768
g1215
(lp4769
(dp4770
g1218
g4767
sg1219
F0.239237145
sg1220
VNone
p4771
sassS'Projects \n'
p4772
(dp4773
g492
(lp4774
(dp4775
g495
g4772
sg496
F0.169131368
sg497
VEducation
p4776
sassS'GLOBAL'
p4777
(dp4778
g595
(lp4779
(dp4780
g598
g4777
sg599
F0.169131368
sg600
VEducation
p4781
sassS'RESEARCH AND WORK EXPERIENCE: \n'
p4782
(dp4783
g1215
(lp4784
(dp4785
g1218
g4782
sg1219
F0.4256964
sg1220
VworkExperience
p4786
sassS'EXPERIENCE :'
p4787
(dp4788
g93
(lp4789
(dp4790
g96
g4787
sg97
F0.472409129
sg98
VworkExperience
p4791
sassS'POSITIONS OF RESPONSIBILTY \n'
p4792
(dp4793
g1191
(lp4794
(dp4795
g1194
g4792
sg1195
F0.5020807
sg1196
VNone
p4796
sassS'EXPERIENCE \n'
p4797
(dp4798
g525
(lp4799
(dp4800
g528
g4797
sg529
F0.6403494
sg530
VworkExperience
p4801
sassS'AREAS OF INTEREST: \n'
p4802
(dp4803
g266
(lp4804
(dp4805
g269
g4802
sg270
F0.461779356
sg271
VInterests
p4806
sassS'Address for Correspondence:\n'
p4807
(dp4808
g418
(lp4809
(dp4810
g421
g4807
sg422
F0.268609375
sg423
VNone
p4811
sassS'best speaker at the national level'
p4812
(dp4813
g75
(lp4814
(dp4815
g78
g4812
sg79
F0.435430229
sg80
VNone
p4816
sassS'Rajasthan'
p4817
(dp4818
g586
(lp4819
(dp4820
g589
g4817
sg590
F0.169131368
sg591
VEducation
p4821
sassS'DEEPIKA YADAV \n'
p4822
(dp4823
g1876
(lp4824
(dp4825
g1879
g4822
sg1880
F0.189706534
sg1881
VNone
p4826
sassS'EDUCATIONAL QUALIFICATIONS  \n'
p4827
(dp4828
g2631
(lp4829
(dp4830
g2634
g4827
sg2635
F0.951864243
sg2636
VEducation
p4831
sassS'abor Law), Jamshedpur District'
p4832
(dp4833
g75
(lp4834
(dp4835
g78
g4832
sg79
F0.5692908
sg80
VNone
p4836
sassS'School, Newcastle. \n'
p4837
(dp4838
g348
(lp4839
(dp4840
g351
g4837
sg352
F0.5274928
sg353
VNone
p4841
sassS'Participation \n'
p4842
(dp4843
g492
(lp4844
(dp4845
g495
g4842
sg496
F0.169131368
sg497
VEducation
p4846
sassS'; phone-'
p4847
(dp4848
g293
(lp4849
(dp4850
g296
g4847
sg297
F0.2240457
sg298
VNone
p4851
sassS'INTELLECTUALPOST.COM'
p4852
(dp4853
g595
(lp4854
(dp4855
g598
g4852
sg599
F0.5485233
sg600
VNone
p4856
sassS'ORGANISATIONAL ACTIVITIES \n'
p4857
(dp4858
g3922
(lp4859
(dp4860
g3925
g4857
sg3926
F0.329184145
sg3927
VextraCurricular
p4861
sassS'Interest:'
p4862
(dp4863
g75
(lp4864
(dp4865
g78
g4862
sg79
F0.301810324
sg80
VInterests
p4866
sassS'UNIVERSITY/SCHOOL \n'
p4867
(dp4868
g66
(lp4869
(dp4870
g69
g4867
sg70
F0.265633732
sg71
VNone
p4871
sassS'Mumbai \n'
p4872
(dp4873
g57
(lp4874
(dp4875
g60
g4872
sg61
F0.196099058
sg62
VNone
p4876
sassS'DIBYA PRAKASH BEHERA \n'
p4877
(dp4878
g66
(lp4879
(dp4880
g69
g4877
sg70
F0.362944543
sg71
VNone
p4881
sassS'EDUCATIONAL QUALIFICATION:'
p4882
(dp4883
g1702
(lp4884
(dp4885
g1705
g4882
sg1706
F0.775664032
sg1707
VEducation
p4886
sassS'Aditya Birla Group Scholarship'
p4887
(dp4888
g878
(lp4889
(dp4890
g881
g4887
sg882
F0.324501246
sg883
VNone
p4891
sassS'National Corporate Law Moot'
p4892
(dp4893
g75
(lp4894
(dp4895
g78
g4892
sg79
F0.9845962
sg80
VmootCourtLaw
p4896
sassS'COLLEGE/SCHOOL  QUALIFICATION   \n'
p4897
(dp4898
g2631
(lp4899
(dp4900
g2634
g4897
sg2635
F0.243269637
sg2636
VNone
p4901
sassS'Associate'
p4902
(dp4903
g293
(lp4904
(dp4905
g296
g4902
sg297
F0.169131368
sg298
VEducation
p4906
sassS'BALAJI VENKATAKRISHNAN \n'
p4907
(dp4908
g676
(lp4909
(dp4910
g679
g4907
sg680
F0.240739852
sg681
VNone
p4911
sassS'University of  Illinois at Urbana-\n'
p4912
(dp4913
g21
(lp4914
(dp4915
g24
g4912
sg25
F0.5187211
sg26
VNone
p4916
sassS'June 2015 \n'
p4917
(dp4918
g1191
(lp4919
(dp4920
g1194
g4917
sg1195
F0.189706534
sg1196
VNone
p4921
sassS'CO-CURRICULAR'
p4922
(dp4923
g93
(lp4924
(dp4925
g96
g4922
sg97
F0.8077629
sg98
VextraCurricular
p4926
sassS'ACADEMIC PROFILE  \n'
p4927
(dp4928
g1663
(lp4929
(dp4930
g1666
g4927
sg1667
F0.1469664
sg1668
VNone
p4931
sassS'The Indian Law Institute  \n'
p4932
(dp4933
g12
(lp4934
(dp4935
g15
g4932
sg16
F0.350447148
sg17
VNone
p4936
sassS'INTERNATIONAL STUDY EXPERIENCE \n'
p4937
(dp4938
g624
(lp4939
(dp4940
g627
g4937
sg628
F0.211486042
sg629
VworkExperience
p4941
sassS'AR E A S O F IN TE R E ST \n'
p4942
(dp4943
g3546
(lp4944
(dp4945
g3549
g4942
sg3550
F0.6147694
sg3551
VNone
p4946
sassS'(SICHREM), Bangalore. \n'
p4947
(dp4948
g860
(lp4949
(dp4950
g863
g4947
sg864
F0.670039356
sg865
VNone
p4951
sassS'Phoenix Legal, Law Firm, New Delhi \n'
p4952
(dp4953
g207
(lp4954
(dp4955
g210
g4952
sg211
F0.658845
sg212
VNone
p4956
sassS'Other Areas of Interest \n'
p4957
(dp4958
g912
(lp4959
(dp4960
g915
g4957
sg916
F0.302606851
sg917
VInterests
p4961
sassS'Publications'
p4962
(dp4963
g380
(lp4964
(dp4965
g383
g4962
sg384
F0.169131368
sg385
VEducation
p4966
sassS'Amity Law School, GGSIUP \n'
p4967
(dp4968
g111
(lp4969
(dp4970
g114
g4967
sg115
F0.5631001
sg116
VNone
p4971
sassS'    Jul, 2014 \n'
p4972
(dp4973
g84
(lp4974
(dp4975
g87
g4972
sg88
F0.319936246
sg89
VNone
p4976
sassS'DEEYA RAY  \n'
p4977
(dp4978
S'intents'
p4979
(lp4980
(dp4981
S'query'
p4982
g4977
sS'score'
p4983
F0.27029556
sS'intent'
p4984
VNone
p4985
sassS'                  R.K.Puram, \n'
p4986
(dp4987
g230
(lp4988
(dp4989
g233
g4986
sg234
F0.5787081
sg235
VNone
p4990
sassS'Legal Internships \n'
p4991
(dp4992
g57
(lp4993
(dp4994
g60
g4991
sg61
F0.210767239
sg62
VInternship
p4995
sassS'Bhagyashree\n'
p4996
(dp4997
g418
(lp4998
(dp4999
g421
g4996
sg422
F0.502055764
sg423
VNone
p5000
sassS'Personality Traits \n'
p5001
(dp5002
g362
(lp5003
(dp5004
g365
g5001
sg366
F0.186773553
sg367
VNone
p5005
sassS'Jyoti Sagar Associates, New Delhi \n'
p5006
(dp5007
g912
(lp5008
(dp5009
g915
g5006
sg916
F0.5318325
sg917
VNone
p5010
sassS'registration of various Trademarks'
p5011
(dp5012
g878
(lp5013
(dp5014
g881
g5011
sg882
F0.5098701
sg883
VNone
p5015
sassS'Legal Intern\n'
p5016
(dp5017
g1540
(lp5018
(dp5019
g1543
g5016
sg1544
F0.172231689
sg1545
VInternship
p5020
sassS'Position \n'
p5021
(dp5022
g1663
(lp5023
(dp5024
g1666
g5021
sg1667
F0.714622259
sg1668
Vskills
p5025
sassS'Board/University \n'
p5026
(dp5027
g138
(lp5028
(dp5029
g141
g5026
sg142
F0.224415123
sg143
VNone
p5030
sassS'ACADEMICS AND CO-CURRICULAR \n'
p5031
(dp5032
g1760
(lp5033
(dp5034
g1763
g5031
sg1764
F0.2785223
sg1765
VNone
p5035
sassS'DEEPAKSHI GARG \n'
p5036
(dp5037
g1950
(lp5038
(dp5039
g1953
g5036
sg1954
F0.238646075
sg1955
VNone
p5040
sassS'judicial inspection of file'
p5041
(dp5042
g878
(lp5043
(dp5044
g881
g5041
sg882
F0.427598983
sg883
VNone
p5045
sassS'Reddy and'
p5046
(dp5047
g595
(lp5048
(dp5049
g598
g5046
sg599
F0.189706534
sg600
VNone
p5050
sassS'CAREER OBJECTIVES \n'
p5051
(dp5052
g492
(lp5053
(dp5054
g495
g5051
sg496
F0.189706534
sg497
VNone
p5055
sassS'February 2016)'
p5056
(dp5057
g75
(lp5058
(dp5059
g78
g5056
sg79
F0.259775519
sg80
VNone
p5060
sassS'DISHA MEHTA \n'
p5061
(dp5062
g940
(lp5063
(dp5064
g943
g5061
sg944
F0.189706534
sg945
VNone
p5065
sassS'ACADEMIC QUALIFICATIONS \n'
p5066
(dp5067
g846
(lp5068
(dp5069
g849
g5066
sg850
F0.6373812
sg851
VEducation
p5070
sassS'8.28/ 10 till the end of V semester'
p5071
(dp5072
g586
(lp5073
(dp5074
g589
g5071
sg590
F0.717439055
sg591
VNone
p5075
sassS'Bronze Medal'
p5076
(dp5077
g878
(lp5078
(dp5079
g881
g5076
sg882
F0.189706534
sg883
VNone
p5080
sassS'MVP Colony Sec.-11 \n'
p5081
(dp5082
g469
(lp5083
(dp5084
g472
g5081
sg473
F0.449176073
sg474
VNone
p5085
sassS'EDUCATION QUALIFICATIONS: \n'
p5086
(dp5087
g1215
(lp5088
(dp5089
g1218
g5086
sg1219
F0.9121544
sg1220
VEducation
p5090
sassS'WORK EXPERIENCE\n'
p5091
(dp5092
g2573
(lp5093
(dp5094
g2576
g5091
sg2577
F0.9486763
sg2578
VworkExperience
p5095
sassS'Trainee Law Clerk \n'
p5096
(dp5097
g3442
(lp5098
(dp5099
g3445
g5096
sg3446
F0.28822723
sg3447
VNone
p5100
sassS'ommittee'
p5101
(dp5102
g878
(lp5103
(dp5104
g881
g5101
sg882
F0.499958724
sg883
VNone
p5105
sassS', Supreme Court of India'
p5106
(dp5107
g39
(lp5108
(dp5109
g42
g5106
sg43
F0.5215186
sg44
VNone
p5110
sassS'Best Memorial Award,'
p5111
(dp5112
g1267
(lp5113
(dp5114
g1270
g5111
sg1271
F0.3912437
sg1272
VNone
p5115
sassS'with Mr. Suresh Padwal since 2014.'
p5116
(dp5117
g93
(lp5118
(dp5119
g96
g5116
sg97
F0.659218669
sg98
VNone
p5120
sassS'Brief Work'
p5121
(dp5122
g93
(lp5123
(dp5124
g96
g5121
sg97
F0.133048892
sg98
VNone
p5125
sassS'Professional Experience \n'
p5126
(dp5127
g57
(lp5128
(dp5129
g60
g5126
sg61
F0.284860343
sg62
VworkExperience
p5130
sassS'EMAIL ID:'
p5131
(dp5132
g75
(lp5133
(dp5134
g78
g5131
sg79
F0.199132
sg80
VNone
p5135
sassS'K.Shanmuga Barathy \n'
p5136
(dp5137
g266
(lp5138
(dp5139
g269
g5136
sg270
F0.5901437
sg271
VNone
p5140
sassS'Committee \n'
p5141
(dp5142
g492
(lp5143
(dp5144
g495
g5141
sg496
F0.169131368
sg497
VEducation
p5145
sassS'May- Aug 2014 ALMT Legal, Mumbai \n'
p5146
(dp5147
g1341
(lp5148
(dp5149
g1344
g5146
sg1345
F0.6500407
sg1346
VNone
p5150
sassS'ADDITIONAL QUALIFICATION AND COURSES \n'
p5151
(dp5152
g3220
(lp5153
(dp5154
g3223
g5151
sg3224
F0.31776008
sg3225
VEducation
p5155
sassS'on the month May,2016 \n'
p5156
(dp5157
g4415
(lp5158
(dp5159
g4418
g5156
sg4419
F0.5030774
sg4420
VNone
p5160
sassS'Legal Mirror'
p5161
(dp5162
g1438
(lp5163
(dp5164
g1441
g5161
sg1442
F0.189706534
sg1443
VNone
p5165
sassS'CO-CURRICULAR  \n'
p5166
(dp5167
g102
(lp5168
(dp5169
g105
g5166
sg106
F0.8077629
sg107
VextraCurricular
p5170
sassS'I.  Positions of Responsibility Held \n'
p5171
(dp5172
g823
(lp5173
(dp5174
g826
g5171
sg827
F0.602837443
sg828
VNone
p5175
sassS'DHEERESH KUMAR DWIVEDI \n'
p5176
(dp5177
g1774
(lp5178
(dp5179
g1777
g5176
sg1778
F0.3051991
sg1779
VNone
p5180
sassS'College/University/Board \n'
p5181
(dp5182
g180
(lp5183
(dp5184
g183
g5181
sg184
F0.3569765
sg185
VNone
p5185
sassS'mity Law School,'
p5186
(dp5187
g1438
(lp5188
(dp5189
g1441
g5186
sg1442
F0.605946541
sg1443
VNone
p5190
sassS'CONFERENCES AND SEMINARS (Legal) \n'
p5191
(dp5192
g198
(lp5193
(dp5194
g201
g5191
sg202
F0.4272215
sg203
VNone
p5195
sassS'PRE-UNIVERSITY ACHIEVEMENTS \n'
p5196
(dp5197
g248
(lp5198
(dp5199
g251
g5196
sg252
F0.250397
sg253
VNone
p5200
sassS'Objective:  \n'
p5201
(dp5202
g860
(lp5203
(dp5204
g863
g5201
sg864
F0.182941064
sg865
Vskills
p5205
sassS'SOCIAL WORK \n'
p5206
(dp5207
g1663
(lp5208
(dp5209
g1666
g5206
sg1667
F0.180860877
sg1668
VworkExperience
p5210
sassS'Organizational Skills: \n'
p5211
(dp5212
g3309
(lp5213
(dp5214
g3312
g5211
sg3313
F0.330988765
sg3314
Vskills
p5215
sassS'Extra- Curricular Activities: \n'
p5216
(dp5217
g257
(lp5218
(dp5219
g260
g5216
sg261
F0.8932294
sg262
VextraCurricular
p5220
sassS'Carbon Credits- A Case Study \n'
p5221
(dp5222
g84
(lp5223
(dp5224
g87
g5221
sg88
F0.39795807
sg89
VNone
p5225
sassS'AND PROF. NEETI SHIKHA.  \n'
p5226
(dp5227
g761
(lp5228
(dp5229
g764
g5226
sg765
F0.495616555
sg766
VNone
p5230
sassS'CGPA \n'
p5231
(dp5232
g138
(lp5233
(dp5234
g141
g5231
sg142
F0.499958724
sg143
VNone
p5235
sassS'EDUCATIONAL QUALIFICATION: \n'
p5236
(dp5237
g446
(lp5238
(dp5239
g449
g5236
sg450
F0.775664032
sg451
VEducation
p5240
sassS'[April, 2015: 4 weeks]'
p5241
(dp5242
g380
(lp5243
(dp5244
g383
g5241
sg384
F0.529559255
sg385
VNone
p5245
sassS' EXTRA-CURRICULAR ACTIVITIES: \n'
p5246
(dp5247
g275
(lp5248
(dp5249
g278
g5246
sg279
F0.937160552
sg280
VextraCurricular
p5250
sassS'OTHER COMPETITIONS \n'
p5251
(dp5252
g761
(lp5253
(dp5254
g764
g5251
sg765
F0.16773513
sg766
VNone
p5255
sassS'2016- 2017 (Ongoing) \n'
p5256
(dp5257
g525
(lp5258
(dp5259
g528
g5256
sg529
F0.411582
sg530
VNone
p5260
sassS'CGPA/ \n'
p5261
(dp5262
g2631
(lp5263
(dp5264
g2634
g5261
sg2635
F0.225580215
sg2636
VNone
p5265
sassS'Dhiren Sehgal. \n'
p5266
(dp5267
g525
(lp5268
(dp5269
g528
g5266
sg529
F0.3774699
sg530
VNone
p5270
sassS'New Delhi'
p5271
(dp5272
g293
(lp5273
(dp5274
g296
g5271
sg297
F0.271977216
sg298
VNone
p5275
sassS'AZB & Partners, Law Firm, Mumbai \n'
p5276
(dp5277
g207
(lp5278
(dp5279
g210
g5276
sg211
F0.7611203
sg212
VNone
p5280
sassS'Semester 3: 8.33 \n'
p5281
(dp5282
g348
(lp5283
(dp5284
g351
g5281
sg352
F0.4373953
sg353
VNone
p5285
sassS'Devrupa R'
p5286
(dp5287
g380
(lp5288
(dp5289
g383
g5286
sg384
F0.280415028
sg385
VNone
p5290
sassS'TATA STEEL LIMITED, JAMSHEDPUR. \n'
p5291
(dp5292
g129
(lp5293
(dp5294
g132
g5291
sg133
F0.530578434
sg134
VNone
p5295
sassS'Captain'
p5296
(dp5297
g878
(lp5298
(dp5299
g881
g5296
sg882
F0.169131368
sg883
VEducation
p5300
sassS'Senior Advocate Anil Khetarpal  \n'
p5301
(dp5302
g814
(lp5303
(dp5304
g817
g5301
sg818
F0.2835044
sg819
VNone
p5305
sassS'[B.B.A.,LL.B(Hons.)] \n'
p5306
(dp5307
g492
(lp5308
(dp5309
g495
g5306
sg496
F0.8433871
sg497
VNone
p5310
sassS'            May 2010 (91.2% marks)  \n'
p5311
(dp5312
g1215
(lp5313
(dp5314
g1218
g5311
sg1219
F0.602717936
sg1220
VNone
p5315
sassS'Examination Reports'
p5316
(dp5317
g878
(lp5318
(dp5319
g881
g5316
sg882
F0.189706534
sg883
VNone
p5320
sassS'POSITIONS OF RESPONSIBILITY \n'
p5321
(dp5322
g57
(lp5323
(dp5324
g60
g5321
sg61
F0.364577621
sg62
VNone
p5325
sassS'Government Law College, Mumbai'
p5326
(dp5327
g93
(lp5328
(dp5329
g96
g5326
sg97
F0.5832002
sg98
VNone
p5330
sassS'online certificate course'
p5331
(dp5332
g878
(lp5333
(dp5334
g881
g5331
sg882
F0.259775519
sg883
VNone
p5335
sassS'EDITORIAL EXPERIENCE \n'
p5336
(dp5337
g275
(lp5338
(dp5339
g278
g5336
sg279
F0.184940651
sg280
VworkExperience
p5340
sassS'ACADEMIC PERFORMANCE \n'
p5341
(dp5342
g330
(lp5343
(dp5344
g333
g5341
sg334
F0.189706534
sg335
VNone
p5345
sassS'Academic Publications'
p5346
(dp5347
g1031
(lp5348
(dp5349
g1034
g5346
sg1035
F0.189706534
sg1036
VNone
p5350
sassS'D. H. Law Associates, Patna  \n'
p5351
(dp5352
g1191
(lp5353
(dp5354
g1194
g5351
sg1195
F0.6740647
sg1196
VNone
p5355
sassS'   [May-June, 2016: 3 Weeks]  \n'
p5356
(dp5357
g207
(lp5358
(dp5359
g210
g5356
sg211
F0.570312858
sg212
VNone
p5360
sassS'Vaakya'
p5361
(dp5362
g1267
(lp5363
(dp5364
g1270
g5361
sg1271
F0.499958724
sg1272
VNone
p5365
sassS'CO-CURRICULAR ACTIVITIES: \n'
p5366
(dp5367
g446
(lp5368
(dp5369
g449
g5366
sg450
F0.881091058
sg451
VextraCurricular
p5370
sassS'November 2016) \n'
p5371
(dp5372
g189
(lp5373
(dp5374
g192
g5371
sg193
F0.259775519
sg194
VNone
p5375
sassS'Advocate M.K. Roy, Calcutt'
p5376
(dp5377
g75
(lp5378
(dp5379
g78
g5376
sg79
F0.6255125
sg80
VNone
p5380
sassS'the office of'
p5381
(dp5382
g586
(lp5383
(dp5384
g589
g5381
sg590
F0.5070169
sg591
VNone
p5385
sassS'Legal Intern \n'
p5386
(dp5387
g3309
(lp5388
(dp5389
g3312
g5386
sg3313
F0.248323485
sg3314
VInternship
p5390
sassS'J. Sagar Associates'
p5391
(dp5392
g1438
(lp5393
(dp5394
g1441
g5391
sg1442
F0.3764269
sg1443
VNone
p5395
sassS'Oxfam India'
p5396
(dp5397
g39
(lp5398
(dp5399
g42
g5396
sg43
F0.291140854
sg44
VNone
p5400
sassS'Green Selfie Challenge  \n'
p5401
(dp5402
g84
(lp5403
(dp5404
g87
g5401
sg88
F0.255179465
sg89
VNone
p5405
sassS'INSTITUT'
p5406
(dp5407
g595
(lp5408
(dp5409
g598
g5406
sg599
F0.169131368
sg600
VEducation
p5410
sassS' CO-CURRICULAR ACHIEVEMENTS  \n'
p5411
(dp5412
g284
(lp5413
(dp5414
g287
g5411
sg288
F0.418556273
sg289
VextraCurricular
p5415
sassS'CONFERENCES \n'
p5416
(dp5417
g1191
(lp5418
(dp5419
g1194
g5416
sg1195
F0.169131368
sg1196
VEducation
p5420
sassS'Dr. C.J. Rawandle \n'
p5421
(dp5422
g912
(lp5423
(dp5424
g915
g5421
sg916
F0.6792226
sg917
VNone
p5425
sassS'    November to December, 2014 \n'
p5426
(dp5427
g21
(lp5428
(dp5429
g24
g5426
sg25
F0.4490678
sg26
VNone
p5430
sassS'Position : Intern \n'
p5431
(dp5432
g446
(lp5433
(dp5434
g449
g5431
sg450
F0.400224417
sg451
Vskills
p5435
sassS'ARSHIA SARAF \n'
p5436
(dp5437
g1137
(lp5438
(dp5439
g1140
g5436
sg1141
F0.235717878
sg1142
VNone
p5440
sassS'RESUME  \n'
p5441
(dp5442
g1258
(lp5443
(dp5444
g1261
g5441
sg1262
F0.169131368
sg1263
VEducation
p5445
sassS'Courses:  \n'
p5446
(dp5447
g189
(lp5448
(dp5449
g192
g5446
sg193
F0.2040356
sg194
Vskills
p5450
sassS'COMPUTER SKILLS\n'
p5451
(dp5452
g418
(lp5453
(dp5454
g421
g5451
sg422
F0.339900374
sg423
Vskills
p5455
sassS'Email \n'
p5456
(dp5457
g138
(lp5458
(dp5459
g141
g5456
sg142
F0.169131368
sg143
VEducation
p5460
sassS' Educational Qualification: \n'
p5461
(dp5462
g404
(lp5463
(dp5464
g407
g5461
sg408
F0.775664032
sg409
VEducation
p5465
sassS'Internship \n'
p5466
(dp5467
g1022
(lp5468
(dp5469
g1025
g5466
sg1026
F0.8177708
sg1027
VInternship
p5470
sassS'NOIDA \n'
p5471
(dp5472
g2829
(lp5473
(dp5474
g2832
g5471
sg2833
F0.169131368
sg2834
VEducation
p5475
sassS'Diploma / Certificate\n'
p5476
(dp5477
g418
(lp5478
(dp5479
g421
g5476
sg422
F0.228854313
sg423
VNone
p5480
sassS'(Kolkata)'
p5481
(dp5482
g1419
(lp5483
(dp5484
g1422
g5481
sg1423
F0.259775519
sg1424
VNone
p5485
sassS'POSITIONS OF RESPONSIBILITY'
p5486
(dp5487
g548
(lp5488
(dp5489
g551
g5486
sg552
F0.364577621
sg553
VNone
p5490
sassS'EXTRA CURRICULAR ACTIVITIES:\n'
p5491
(dp5492
g733
(lp5493
(dp5494
g736
g5491
sg737
F0.9040638
sg738
VextraCurricular
p5495
sassS'TECHNICAL SKILLS \n'
p5496
(dp5497
g2820
(lp5498
(dp5499
g2823
g5496
sg2824
F0.2956214
sg2825
Vskills
p5500
sassS'[October-November, 2015: 4 Weeks] \n'
p5501
(dp5502
g171
(lp5503
(dp5504
g174
g5501
sg175
F0.576932669
sg176
VNone
p5505
sassS'2010.  \n'
p5506
(dp5507
g1760
(lp5508
(dp5509
g1763
g5506
sg1764
F0.2632305
sg1765
VNone
p5510
sassS'CHINNA ASWATHY ABRAHAM \n'
p5511
(dp5512
g275
(lp5513
(dp5514
g278
g5511
sg279
F0.300219446
sg280
VNone
p5515
sassS'OBJECTIVE'
p5516
(dp5517
g548
(lp5518
(dp5519
g551
g5516
sg552
F0.169131368
sg553
VEducation
p5520
sassS'Organisation \n'
p5521
(dp5522
g1663
(lp5523
(dp5524
g1666
g5521
sg1667
F0.169131368
sg1668
VEducation
p5525
sassS'    November to December, 2013 \n'
p5526
(dp5527
g21
(lp5528
(dp5529
g24
g5526
sg25
F0.446705759
sg26
VNone
p5530
sassS'WINTER INTERNSHIP'
p5531
(dp5532
g501
(lp5533
(dp5534
g504
g5531
sg505
F0.392372966
sg506
VInternship
p5535
sassS'e-mail'
p5536
(dp5537
g878
(lp5538
(dp5539
g881
g5536
sg882
F0.2204831
sg883
VNone
p5540
sassS'Intellectual Property Rights'
p5541
(dp5542
g878
(lp5543
(dp5544
g881
g5541
sg882
F0.259775519
sg883
VNone
p5545
sassS'Special Mention \n'
p5546
(dp5547
g230
(lp5548
(dp5549
g233
g5546
sg234
F0.186773553
sg235
VNone
p5550
sassS'AREA OF INTEREST   \n'
p5551
(dp5552
g1950
(lp5553
(dp5554
g1953
g5551
sg1954
F0.24293448
sg1955
VNone
p5555
sassS'Senior Advocate Jayant Bhushan \n'
p5556
(dp5557
g912
(lp5558
(dp5559
g915
g5556
sg916
F0.261828184
sg917
VNone
p5560
sassS'Secured Rank 3'
p5561
(dp5562
g586
(lp5563
(dp5564
g589
g5561
sg590
F0.259775519
sg591
VNone
p5565
sassS'CAREER OBJECTIVE \n'
p5566
(dp5567
g138
(lp5568
(dp5569
g141
g5566
sg142
F0.189706534
sg143
VNone
p5570
sassS'Completion \n'
p5571
(dp5572
g30
(lp5573
(dp5574
g33
g5571
sg34
F0.191661969
sg35
VEducation
p5575
sassS'CHARU SINGH \n'
p5576
(dp5577
S'intents'
p5578
(lp5579
(dp5580
S'query'
p5581
g5576
sS'score'
p5582
F0.186773553
sS'intent'
p5583
VNone
p5584
sassS'University\n'
p5585
(dp5586
g418
(lp5587
(dp5588
g421
g5585
sg422
F0.191661969
sg423
VEducation
p5589
sassS'DEEKSHA PATYAL \n'
p5590
(dp5591
g1244
(lp5592
(dp5593
g1247
g5590
sg1248
F0.233457148
sg1249
VNone
p5594
sassS'WORK PROFILE/ EXPERIENCE:'
p5595
(dp5596
g1702
(lp5597
(dp5598
g1705
g5595
sg1706
F0.9732057
sg1707
VworkExperience
p5599
sassS'Damodaram Sanjivayya  \n'
p5600
(dp5601
g469
(lp5602
(dp5603
g472
g5600
sg473
F0.639202
sg474
VNone
p5604
sassS'Tournaments \n'
p5605
(dp5606
g752
(lp5607
(dp5608
g755
g5605
sg756
F0.191661969
sg757
VEducation
p5609
sassS'Year :'
p5610
(dp5611
g93
(lp5612
(dp5613
g96
g5610
sg97
F0.270485938
sg98
Vskills
p5614
sassS'CCUURRRRIICCUULLUUMM  VVIITTAAEE  \n'
p5615
(dp5616
g284
(lp5617
(dp5618
g287
g5615
sg288
F0.639202
sg289
VNone
p5619
sassS'Name of the Institution \n'
p5620
(dp5621
g257
(lp5622
(dp5623
g260
g5620
sg261
F0.46416375
sg262
VNone
p5624
sassS'Key Modules / \n'
p5625
(dp5626
g492
(lp5627
(dp5628
g495
g5625
sg496
F0.231937379
sg497
VNone
p5629
sassS'DIVYA AGARWAL \n'
p5630
(dp5631
g709
(lp5632
(dp5633
g712
g5630
sg713
F0.189706534
sg714
VNone
p5634
sassS'Year \n'
p5635
(dp5636
g404
(lp5637
(dp5638
g407
g5635
sg408
F0.169131368
sg409
VEducation
p5639
sassS'COMPETITIONS'
p5640
(dp5641
g3338
(lp5642
(dp5643
g3341
g5640
sg3342
F0.169131368
sg3343
VEducation
p5644
sassS'Interned at Con'
p5645
(dp5646
g1629
(lp5647
(dp5648
g1632
g5645
sg1633
F0.3442156
sg1634
VNone
p5649
sassS'LEADERSHIP POSITIONS  \n'
p5650
(dp5651
g676
(lp5652
(dp5653
g679
g5650
sg680
F0.186773553
sg681
VNone
p5654
sassS'MEDIATION/ARBITRATION'
p5655
(dp5656
g1267
(lp5657
(dp5658
g1270
g5655
sg1271
F0.265927762
sg1272
VNone
p5659
sassS'Champaign \n'
p5660
(dp5661
g21
(lp5662
(dp5663
g24
g5660
sg25
F0.169131368
sg26
VEducation
p5664
sassS'55.25 %'
p5665
(dp5666
g93
(lp5667
(dp5668
g96
g5665
sg97
F0.387866855
sg98
VNone
p5669
sassS'4.  NGO: Human Rights Law Network \n'
p5670
(dp5671
g138
(lp5672
(dp5673
g141
g5670
sg142
F0.5549662
sg143
VNone
p5674
sassS'Human Rights Law Network \n'
p5675
(dp5676
g1751
(lp5677
(dp5678
g1754
g5675
sg1755
F0.360958
sg1756
VNone
p5679
sassS'Symbiosis Law School, Pune'
p5680
(dp5681
g548
(lp5682
(dp5683
g551
g5680
sg552
F0.501398444
sg553
VNone
p5684
sassS' Legal Contributor \n'
p5685
(dp5686
g1751
(lp5687
(dp5688
g1754
g5685
sg1755
F0.189706534
sg1756
VNone
p5689
sassS'Co-Curricular Activities   \n'
p5690
(dp5691
g1080
(lp5692
(dp5693
g1083
g5690
sg1084
F0.9586167
sg1085
VextraCurricular
p5694
sassS'               Jun, 2015 \n'
p5695
(dp5696
g84
(lp5697
(dp5698
g87
g5695
sg88
F0.3188947
sg89
VNone
p5699
sassS'RESEARCH PUBLICATIONS'
p5700
(dp5701
g1267
(lp5702
(dp5703
g1270
g5700
sg1271
F0.9104773
sg1272
VResearch
p5704
sassS'Advocate B.N Ghosh (L'
p5705
(dp5706
g75
(lp5707
(dp5708
g78
g5705
sg79
F0.444346666
sg80
VNone
p5709
sassS'Luthra & Luthra Law Offices, Mumbai'
p5710
(dp5711
g1629
(lp5712
(dp5713
g1632
g5710
sg1633
F0.782612741
sg1634
VNone
p5714
sassS'SKILLS \n'
p5715
(dp5716
g814
(lp5717
(dp5718
g817
g5715
sg818
F0.5352122
sg819
Vskills
p5719
sassS'Semi-Finalist'
p5720
(dp5721
g878
(lp5722
(dp5723
g881
g5720
sg882
F0.235593319
sg883
VNone
p5724
sassS'Populi'
p5725
(dp5726
g75
(lp5727
(dp5728
g78
g5725
sg79
F0.499958724
sg80
VNone
p5729
sassS'Batch/Year \n'
p5730
(dp5731
g312
(lp5732
(dp5733
g315
g5730
sg316
F0.229004264
sg317
VNone
p5734
sassS'December 2016 \n'
p5735
(dp5736
g1191
(lp5737
(dp5738
g1194
g5735
sg1195
F0.189706534
sg1196
VNone
p5739
sassS'HOBBIES & INTEREST:'
p5740
(dp5741
g1702
(lp5742
(dp5743
g1705
g5740
sg1706
F0.286234438
sg1707
VInterests
p5744
sassS'court, Alandur, Chennai \n'
p5745
(dp5746
g1496
(lp5747
(dp5748
g1499
g5745
sg1500
F0.481406271
sg1501
VNone
p5749
sassS'   Jan, 2015 \n'
p5750
(dp5751
g84
(lp5752
(dp5753
g87
g5750
sg88
F0.325392753
sg89
VNone
p5754
sassS'BA.LLB. (Hons.)'
p5755
(dp5756
g293
(lp5757
(dp5758
g296
g5755
sg297
F0.6578616
sg298
VNone
p5759
sassS'martlawyeronline.in'
p5760
(dp5761
g548
(lp5762
(dp5763
g551
g5760
sg552
F0.637794256
sg553
VNone
p5764
sassS'Extra curricular  \n'
p5765
(dp5766
g2436
(lp5767
(dp5768
g2439
g5765
sg2440
F0.7466607
sg2441
VextraCurricular
p5769
sassS'June, 2015 : 4weeks \n'
p5770
(dp5771
g312
(lp5772
(dp5773
g315
g5770
sg316
F0.458375484
sg317
VNone
p5774
sassS'2017)\n'
p5775
(dp5776
g1540
(lp5777
(dp5778
g1543
g5775
sg1544
F0.189706534
sg1545
VNone
p5779
sassS'ACADEMIC PERFORMANCE\n'
p5780
(dp5781
g2573
(lp5782
(dp5783
g2576
g5780
sg2577
F0.189706534
sg2578
VNone
p5784
sassS'CO- CURRICULAR ACTIVITIES'
p5785
(dp5786
g878
(lp5787
(dp5788
g881
g5785
sg882
F0.92307657
sg883
VextraCurricular
p5789
sassS'Position:'
p5790
(dp5791
g548
(lp5792
(dp5793
g551
g5790
sg552
F0.7989198
sg553
Vskills
p5794
sassS'Permanent Address:\n'
p5795
(dp5796
g418
(lp5797
(dp5798
g421
g5795
sg422
F0.205745861
sg423
VNone
p5799
sassS'Papers Published \n'
p5800
(dp5801
S'intents'
p5802
(lp5803
(dp5804
S'query'
p5805
g5800
sS'score'
p5806
F0.9999933
sS'intent'
p5807
VResearch
p5808
sassS'WORK EXPERIENCE'
p5809
(dp5810
g548
(lp5811
(dp5812
g551
g5809
sg552
F0.9486763
sg553
VworkExperience
p5813
sassS'Bharucha & Partners, \n'
p5814
(dp5815
g57
(lp5816
(dp5817
g60
g5814
sg61
F0.577952
sg62
VNone
p5818
sassS'Ms. Chitra Pareek \n'
p5819
(dp5820
g362
(lp5821
(dp5822
g365
g5819
sg366
F0.430082977
sg367
VNone
p5823
sassS'ACADEMIC QUALIFICATION \n'
p5824
(dp5825
g180
(lp5826
(dp5827
g183
g5824
sg184
F0.56663245
sg185
VEducation
p5828
sassS'Publications and presentation: \n'
p5829
(dp5830
g3442
(lp5831
(dp5832
g3445
g5829
sg3446
F0.278112352
sg3447
VNone
p5833
sassS'Position: Intern \n'
p5834
(dp5835
g248
(lp5836
(dp5837
g251
g5834
sg252
F0.400224417
sg253
Vskills
p5838
sassS'Trademark searches'
p5839
(dp5840
g878
(lp5841
(dp5842
g881
g5839
sg882
F0.189706534
sg883
VNone
p5843
sassS'Educational Qualification \n'
p5844
(dp5845
g1080
(lp5846
(dp5847
g1083
g5844
sg1084
F0.8987922
sg1085
VEducation
p5848
sassS'            AASHI SIROHIWALA \n'
p5849
(dp5850
g492
(lp5851
(dp5852
g495
g5849
sg496
F0.6388425
sg497
VNone
p5853
sassS'Luthra & Luthr'
p5854
(dp5855
g1629
(lp5856
(dp5857
g1632
g5854
sg1633
F0.6475758
sg1634
VNone
p5858
sassS'Enhelion'
p5859
(dp5860
g380
(lp5861
(dp5862
g383
g5859
sg384
F0.499958724
sg385
VNone
p5863
sassS'CO-CURRICULAR ACTIVITIES  \n'
p5864
(dp5865
g2544
(lp5866
(dp5867
g2547
g5864
sg2548
F0.9586167
sg2549
VextraCurricular
p5868
sassS'Best Delegate'
p5869
(dp5870
g75
(lp5871
(dp5872
g78
g5869
sg79
F0.189706534
sg80
VNone
p5873
sassS'CONDUCTING \n'
p5874
(dp5875
g198
(lp5876
(dp5877
g201
g5874
sg202
F0.191661969
sg203
VEducation
p5878
sassS'XIIth (2014) \n'
p5879
(dp5880
g539
(lp5881
(dp5882
g542
g5879
sg543
F0.388010561
sg544
VNone
p5883
sassS'SYMBIOSIS LAW SCHOOL \n'
p5884
(dp5885
g2829
(lp5886
(dp5887
g2832
g5884
sg2833
F0.325529426
sg2834
VNone
p5888
sassS'chinmaysingh92@gmail.com \n'
p5889
(dp5890
g239
(lp5891
(dp5892
g242
g5889
sg243
F0.5169089
sg244
VNone
p5893
sassS'Research Paper Presentations \n'
p5894
(dp5895
g999
(lp5896
(dp5897
g1002
g5894
sg1003
F0.281959623
sg1004
VResearch
p5898
sassS'PERSONAL INFORMATION'
p5899
(dp5900
g548
(lp5901
(dp5902
g551
g5899
sg552
F0.189706534
sg553
VNone
p5903
sassS'PUBLICATIONS \n'
p5904
(dp5905
g248
(lp5906
(dp5907
g251
g5904
sg252
F0.169131368
sg253
VEducation
p5908
sassS'Period'
p5909
(dp5910
g548
(lp5911
(dp5912
g551
g5909
sg552
F0.169131368
sg553
VEducation
p5913
sassS'Wipro Technologies Lt'
p5914
(dp5915
g75
(lp5916
(dp5917
g78
g5914
sg79
F0.259775519
sg80
VNone
p5918
sassS'The Limitation Act'
p5919
(dp5920
g878
(lp5921
(dp5922
g881
g5919
sg882
F0.259775519
sg883
VNone
p5923
sassS'EXTRA - CURRICULAR ACTIVITIES  \n'
p5924
(dp5925
g2631
(lp5926
(dp5927
g2634
g5924
sg2635
F0.928315
sg2636
VextraCurricular
p5928
sassS'CHITRA  PAREEK \n'
p5929
(dp5930
g362
(lp5931
(dp5932
g365
g5929
sg366
F0.233156219
sg367
VNone
p5933
sassS'DISHA GUPTA \n'
p5934
(dp5935
g1842
(lp5936
(dp5937
g1845
g5934
sg1846
F0.189706534
sg1847
VNone
p5938
sassS'ACADEMIC ACHIEVEMENTS  \n'
p5939
(dp5940
g1663
(lp5941
(dp5942
g1666
g5939
sg1667
F0.318461061
sg1668
Vskills
p5943
sassS'SPORTS  \n'
p5944
(dp5945
g180
(lp5946
(dp5947
g183
g5944
sg184
F0.167206883
sg185
VEducation
p5948
sassS'      Associations: \n'
p5949
(dp5950
g3
(lp5951
(dp5952
g6
g5949
sg7
F0.165584251
sg8
Vskills
p5953
sassS'    References:  \n'
p5954
(dp5955
g266
(lp5956
(dp5957
g269
g5954
sg270
F0.1843257
sg271
Vskills
p5958
sassS'10th \n'
p5959
(dp5960
g66
(lp5961
(dp5962
g69
g5959
sg70
F0.169131368
sg71
VEducation
p5963
sassS'Senior Advocate Anil'
p5964
(dp5965
g1267
(lp5966
(dp5967
g1270
g5964
sg1271
F0.190872639
sg1272
VNone
p5968
sassS'Institute \n'
p5969
(dp5970
g404
(lp5971
(dp5972
g407
g5969
sg408
F0.169131368
sg409
VEducation
p5973
sassS'[April-May, 2014: 4 Weeks] \n'
p5974
(dp5975
g207
(lp5976
(dp5977
g210
g5974
sg211
F0.5693478
sg212
VNone
p5978
sassS'for international application'
p5979
(dp5980
g878
(lp5981
(dp5982
g881
g5979
sg882
F0.2888485
sg883
VNone
p5983
sassS'EDUCATION  \n'
p5984
(dp5985
g869
(lp5986
(dp5987
g872
g5984
sg873
F0.9746962
sg874
VEducation
p5988
sassS'Brief Work Profile :\n'
p5989
(dp5990
g733
(lp5991
(dp5992
g736
g5989
sg737
F0.264892459
sg738
VworkExperience
p5993
sassS'Email\n'
p5994
(dp5995
g427
(lp5996
(dp5997
g430
g5994
sg431
F0.169131368
sg432
VEducation
p5998
sassS'Dyslexia Association of Singapore \n'
p5999
(dp6000
g676
(lp6001
(dp6002
g679
g5999
sg680
F0.444420546
sg681
VNone
p6003
sassS'viability of filing an SLP'
p6004
(dp6005
g878
(lp6006
(dp6007
g881
g6004
sg882
F0.467684925
sg883
VNone
p6008
sassS'PAPER PRESENTATIONS \n'
p6009
(dp6010
g1663
(lp6011
(dp6012
g1666
g6009
sg1667
F0.189706534
sg1668
VNone
p6013
sassS'Organizational Experience  \n'
p6014
(dp6015
g790
(lp6016
(dp6017
g793
g6014
sg794
F0.174138546
sg795
VworkExperience
p6018
sassS'NALSAR, Hyderabad'
p6019
(dp6020
g595
(lp6021
(dp6022
g598
g6019
sg599
F0.435495675
sg600
VNone
p6023
sassS'KEY STRENGTHs  \n'
p6024
(dp6025
g469
(lp6026
(dp6027
g472
g6024
sg473
F0.186773553
sg474
VNone
p6028
sassS'Jishnu Saha  \n'
p6029
(dp6030
g4979
(lp6031
(dp6032
g4982
g6029
sg4983
F0.23551859
sg4984
VNone
p6033
sassS'Advocate :'
p6034
(dp6035
g93
(lp6036
(dp6037
g96
g6034
sg97
F0.178172424
sg98
VInternship
p6038
sassS'Examination \n'
p6039
(dp6040
g752
(lp6041
(dp6042
g755
g6039
sg756
F0.191661969
sg757
VEducation
p6043
sassS'Email:'
p6044
(dp6045
g380
(lp6046
(dp6047
g383
g6044
sg384
F0.302132338
sg385
Vskills
p6048
sassS'Phone : 08954705751\n'
p6049
(dp6050
g418
(lp6051
(dp6052
g421
g6049
sg422
F0.2545824
sg423
VNone
p6053
sassS'INTERNSHIPS AND EXPERIENCE'
p6054
(dp6055
g878
(lp6056
(dp6057
g881
g6054
sg882
F0.26726222
sg883
VInternship
p6058
sassS'Semester 1: 7.31 \n'
p6059
(dp6060
g348
(lp6061
(dp6062
g351
g6059
sg352
F0.5080918
sg353
VNone
p6063
sassS'Other Activities \n'
p6064
(dp6065
g940
(lp6066
(dp6067
g943
g6064
sg944
F0.196837842
sg945
VextraCurricular
p6068
sassS'PERSONAL DETAILS \n'
p6069
(dp6070
g138
(lp6071
(dp6072
g141
g6069
sg142
F0.189706534
sg143
VNone
p6073
sassS'BHUMIKA  \n'
p6074
(dp6075
g84
(lp6076
(dp6077
g87
g6074
sg88
F0.502055764
sg89
VNone
p6078
sassS'Additional Academic Courses'
p6079
(dp6080
S'intents'
p6081
(lp6082
(dp6083
S'query'
p6084
g6079
sS'score'
p6085
F0.219289586
sS'intent'
p6086
VNone
p6087
sassS'DIKSHA DESHLAHARE \n'
p6088
(dp6089
g1808
(lp6090
(dp6091
g1811
g6088
sg1812
F0.23551859
sg1813
VNone
p6092
sassS'Dave & Girish & Co., Mumbai \n'
p6093
(dp6094
g21
(lp6095
(dp6096
g24
g6093
sg25
F0.729754
sg26
VNone
p6097
sassS'Trivedis law office,Ahmedabad'
p6098
(dp6099
g1008
(lp6100
(dp6101
g1011
g6098
sg1012
F0.5486237
sg1013
VNone
p6102
sassS'University of Pennsylvania'
p6103
(dp6104
g878
(lp6105
(dp6106
g881
g6103
sg882
F0.4153501
sg883
VNone
p6107
sassS'EXTRACURRICULAR ACTIVITIES  \n'
p6108
(dp6109
g1808
(lp6110
(dp6111
g1811
g6108
sg1812
F0.329184145
sg1813
VextraCurricular
p6112
sassS'  Personal Law in India \n'
p6113
(dp6114
g1751
(lp6115
(dp6116
g1754
g6113
sg1755
F0.363239348
sg1756
VNone
p6117
sassS'SCHOLARSHIPS: \n'
p6118
(dp6119
g1215
(lp6120
(dp6121
g1218
g6118
sg1219
F0.179770589
sg1220
Vskills
p6122
sassS' LexQuest  \n'
p6123
(dp6124
g790
(lp6125
(dp6126
g793
g6123
sg794
F0.499958724
sg795
VNone
p6127
sassS'      CGPA/PERCENTAGE \n'
p6128
(dp6129
g230
(lp6130
(dp6131
g233
g6128
sg234
F0.2813747
sg235
VNone
p6132
sassS'EDUCATIONAL QUALIFICATION'
p6133
(dp6134
g548
(lp6135
(dp6136
g551
g6133
sg552
F0.9386836
sg553
VEducation
p6137
sassS'dvocate Mr. Sudhir Malhotra, CEST'
p6138
(dp6139
g293
(lp6140
(dp6141
g296
g6138
sg297
F0.6031385
sg298
VNone
p6142
sassS'Course Content \n'
p6143
(dp6144
g492
(lp6145
(dp6146
g495
g6143
sg496
F0.189706534
sg497
VNone
p6147
sassS'at ILS Law College, Pune. \n'
p6148
(dp6149
g695
(lp6150
(dp6151
g698
g6148
sg699
F0.6353384
sg700
VNone
p6152
sassS' Vivek Aggarwal & Associates \n'
p6153
(dp6154
g790
(lp6155
(dp6156
g793
g6153
sg794
F0.390624076
sg795
VNone
p6157
sassS'Academic qualification  \n'
p6158
(dp6159
g2436
(lp6160
(dp6161
g2439
g6158
sg2440
F0.56663245
sg2441
VEducation
p6162
sassS'January 2016)'
p6163
(dp6164
g75
(lp6165
(dp6166
g78
g6163
sg79
F0.259775519
sg80
VNone
p6167
sassS'Birla Vidya Niketan \n'
p6168
(dp6169
g111
(lp6170
(dp6171
g114
g6168
sg115
F0.255179465
sg116
VNone
p6172
sassS'Moots: \n'
p6173
(dp6174
g3546
(lp6175
(dp6176
g3549
g6173
sg3550
F0.359755665
sg3551
Vskills
p6177
sassS'JAIL SUPERINTENDENT'
p6178
(dp6179
g595
(lp6180
(dp6181
g598
g6178
sg599
F0.189706534
sg600
VNone
p6182
sassS'AREAS OF INTEREST \n'
p6183
(dp6184
g330
(lp6185
(dp6186
g333
g6183
sg334
F0.400287122
sg335
VInterests
p6187
sassS'REFERENCE  \n'
p6188
(dp6189
g1355
(lp6190
(dp6191
g1358
g6188
sg1359
F0.191661969
sg1360
VEducation
p6192
sassS'New  York \n'
p6193
(dp6194
g312
(lp6195
(dp6196
g315
g6193
sg316
F0.189706534
sg317
VNone
p6197
sassS'COMPUTER SKILLS \n'
p6198
(dp6199
g138
(lp6200
(dp6201
g141
g6198
sg142
F0.341105759
sg143
Vskills
p6202
sassS'SINHA AND CO., KOLKATA \n'
p6203
(dp6204
g1355
(lp6205
(dp6206
g1358
g6203
sg1359
F0.508662939
sg1360
VNone
p6207
sassS'Ganjam, \n'
p6208
(dp6209
g469
(lp6210
(dp6211
g472
g6208
sg473
F0.492308348
sg474
VNone
p6212
sassS'Shardul Amarchand \n'
p6213
(dp6214
g57
(lp6215
(dp6216
g60
g6213
sg61
F0.236908481
sg62
VNone
p6217
sassS'WORK EXPERIENCE:  \n'
p6218
(dp6219
g3
(lp6220
(dp6221
g6
g6218
sg7
F0.8951147
sg8
VworkExperience
p6222
sassS'Jan, 2017 \n'
p6223
(dp6224
g1496
(lp6225
(dp6226
g1499
g6223
sg1500
F0.313172
sg1501
VNone
p6227
sassS'Bishop Cotton Boys, Bangalore'
p6228
(dp6229
g75
(lp6230
(dp6231
g78
g6228
sg79
F0.4730084
sg80
VNone
p6232
sassS'Conferences & Seminars: \n'
p6233
(dp6234
g2622
(lp6235
(dp6236
g2625
g6233
sg2626
F0.3507889
sg2627
VNone
p6237
sassS'    [April-May: 7 weeks] \n'
p6238
(dp6239
g2490
(lp6240
(dp6241
g2493
g6238
sg2494
F0.488402277
sg2495
VNone
p6242
sassS'[June 1st- June 26th: 4 Weeks] \n'
p6243
(dp6244
g2490
(lp6245
(dp6246
g2493
g6243
sg2494
F0.5367198
sg2495
VNone
p6247
sassS'PERSONAL DETAILS  \n'
p6248
(dp6249
g239
(lp6250
(dp6251
g242
g6248
sg243
F0.186773553
sg244
VNone
p6252
sassS'Moot Court \n'
p6253
(dp6254
g404
(lp6255
(dp6256
g407
g6253
sg408
F0.9999976
sg409
VmootCourtLaw
p6257
sassS'studies of juveniles. \n'
p6258
(dp6259
g230
(lp6260
(dp6261
g233
g6258
sg234
F0.6492114
sg235
VNone
p6262
sassS'GPA of 7.78'
p6263
(dp6264
g878
(lp6265
(dp6266
g881
g6263
sg882
F0.6045767
sg883
VNone
p6267
sassS'olicy, Jindal Global Law School.'
p6268
(dp6269
g293
(lp6270
(dp6271
g296
g6268
sg297
F0.69103694
sg298
VNone
p6272
sassS'date \n'
p6273
(dp6274
g2436
(lp6275
(dp6276
g2439
g6273
sg2440
F0.169131368
sg2441
VEducation
p6277
sassS'MOOT COURT EXPERIENCE  \n'
p6278
(dp6279
g207
(lp6280
(dp6281
g210
g6278
sg211
F0.999286652
sg212
VmootCourtLaw
p6282
sassS'NATIONALIY\n'
p6283
(dp6284
g362
(lp6285
(dp6286
g365
g6283
sg366
F0.502055764
sg367
VNone
p6287
sassS'ACADEMIC QUALIFICATION: \n'
p6288
(dp6289
g667
(lp6290
(dp6291
g670
g6288
sg671
F0.250219733
sg672
VEducation
p6292
sassS' June 2016 \n'
p6293
(dp6294
g846
(lp6295
(dp6296
g849
g6293
sg850
F0.189706534
sg851
VNone
p6297
sassS'7, 2013) \n'
p6298
(dp6299
g189
(lp6300
(dp6301
g192
g6298
sg193
F0.456256151
sg194
VNone
p6302
sassS'2015           Kochhar & Co \n'
p6303
(dp6304
g275
(lp6305
(dp6306
g278
g6303
sg279
F0.450156927
sg280
VNone
p6307
sassS'EXTRA-CURRICULAR ACTIVITIES: \n'
p6308
(dp6309
g1215
(lp6310
(dp6311
g1218
g6308
sg1219
F0.8932294
sg1220
VextraCurricular
p6312
sassS'Brief work Profile: \n'
p6313
(dp6314
g3
(lp6315
(dp6316
g6
g6313
sg7
F0.3338425
sg8
VworkExperience
p6317
sassS'Basic Interests  \n'
p6318
(dp6319
g1022
(lp6320
(dp6321
g1025
g6318
sg1026
F0.268719763
sg1027
VInterests
p6322
sassS'of a trademark'
p6323
(dp6324
g878
(lp6325
(dp6326
g881
g6323
sg882
F0.397191882
sg883
VNone
p6327
sassS'Professor, College of  Law, \n'
p6328
(dp6329
g21
(lp6330
(dp6331
g24
g6328
sg25
F0.704323351
sg26
VNone
p6332
sassS'Dr. Adish C. Aggarwala,'
p6333
(dp6334
g1438
(lp6335
(dp6336
g1441
g6333
sg1442
F0.7737828
sg1443
VNone
p6337
sassS'Education \n'
p6338
(dp6339
g483
(lp6340
(dp6341
g486
g6338
sg487
F0.9746962
sg488
VEducation
p6342
sassS'SEMINAR AND OTHER WORKSHOPS \n'
p6343
(dp6344
g138
(lp6345
(dp6346
g141
g6343
sg142
F0.303185
sg143
VNone
p6347
sassS') Course'
p6348
(dp6349
g878
(lp6350
(dp6351
g881
g6348
sg882
F0.189706534
sg883
VNone
p6352
sassS'1st Year        \n'
p6353
(dp6354
g539
(lp6355
(dp6356
g542
g6353
sg543
F0.186773553
sg544
VNone
p6357
sassS'STRENGTH   \n'
p6358
(dp6359
g239
(lp6360
(dp6361
g242
g6358
sg243
F0.191661969
sg244
VEducation
p6362
sassS'Mr. Vinod K. Agarwal'
p6363
(dp6364
g1438
(lp6365
(dp6366
g1441
g6363
sg1442
F0.510908067
sg1443
VNone
p6367
sassS'the new interns for other works. \n'
p6368
(dp6369
g230
(lp6370
(dp6371
g233
g6368
sg234
F0.5024902
sg235
VNone
p6372
sassS'June 2016-29'
p6373
(dp6374
g75
(lp6375
(dp6376
g78
g6373
sg79
F0.2953164
sg80
VNone
p6377
sassS'DECLARATION  \n'
p6378
(dp6379
g239
(lp6380
(dp6381
g242
g6378
sg243
F0.191661969
sg244
VEducation
p6382
sassS'Khaitan & Co LLP \n'
p6383
(dp6384
g12
(lp6385
(dp6386
g15
g6383
sg16
F0.42253378
sg17
VNone
p6387
sassS'13bbl011@nirmauni.ac.in'
p6388
(dp6389
g1008
(lp6390
(dp6391
g1011
g6388
sg1012
F0.689725459
sg1013
VNone
p6392
sassS'Moot Court Achievements: \n'
p6393
(dp6394
g152
(lp6395
(dp6396
g155
g6393
sg156
F0.99489
sg157
VmootCourtLaw
p6397
sassS'all kinds of'
p6398
(dp6399
g93
(lp6400
(dp6401
g96
g6398
sg97
F0.401483834
sg98
VNone
p6402
sassS'BIKRAMJIT BISWAS \n'
p6403
(dp6404
g12
(lp6405
(dp6406
g15
g6403
sg16
F0.232582644
sg17
VNone
p6407
sassS'AWARD OF EXCELLENCE'
p6408
(dp6409
g501
(lp6410
(dp6411
g504
g6408
sg505
F0.372426242
sg506
VNone
p6412
sassS'RESUME FOR  INTERNSHIP \n'
p6413
(dp6414
g2103
(lp6415
(dp6416
g2106
g6413
sg2107
F0.57148993
sg2108
VInternship
p6417
sassS'Mullick Lane'
p6418
(dp6419
g455
(lp6420
(dp6421
g458
g6418
sg459
F0.2682423
sg460
VNone
p6422
sassS'         [April-May, 2014: 3 Weeks] \n'
p6423
(dp6424
g2490
(lp6425
(dp6426
g2493
g6423
sg2494
F0.575187266
sg2495
VNone
p6427
sassS'ANUBHAV CHAKRAVORTY \n'
p6428
(dp6429
g348
(lp6430
(dp6431
g351
g6428
sg352
F0.236266911
sg353
VNone
p6432
sassS'    [June-July: 3 Weeks] \n'
p6433
(dp6434
g2490
(lp6435
(dp6436
g2493
g6433
sg2494
F0.4574678
sg2495
VNone
p6437
sassS'Career Objective: \n'
p6438
(dp6439
g404
(lp6440
(dp6441
g407
g6438
sg408
F0.215546146
sg409
VNone
p6442
sassS'S. Niranjan Reddy and'
p6443
(dp6444
g3338
(lp6445
(dp6446
g3341
g6443
sg3342
F0.429957062
sg3343
VNone
p6447
sassS'Internship Experience:'
p6448
(dp6449
g1031
(lp6450
(dp6451
g1034
g6448
sg1035
F0.412200153
sg1036
VInternship
p6452
sassS'December 2015-18'
p6453
(dp6454
g75
(lp6455
(dp6456
g78
g6453
sg79
F0.29407984
sg80
VNone
p6457
sassS'(March 2014) \n'
p6458
(dp6459
g230
(lp6460
(dp6461
g233
g6458
sg234
F0.318437636
sg235
VNone
p6462
sassS'APOORV AGARWAL  \n'
p6463
(dp6464
g2490
(lp6465
(dp6466
g2493
g6463
sg2494
F0.189706534
sg2495
VNone
p6467
sassS'(5th  December,2016 \n'
p6468
(dp6469
g189
(lp6470
(dp6471
g192
g6468
sg193
F0.437786728
sg194
VNone
p6472
sassS'Odisha \n'
p6473
(dp6474
g66
(lp6475
(dp6476
g69
g6473
sg70
F0.169131368
sg71
VEducation
p6477
sassS'Work experience  \n'
p6478
(dp6479
g2436
(lp6480
(dp6481
g2439
g6478
sg2440
F0.9486763
sg2441
VworkExperience
p6482
sassS'PERSONAL \n'
p6483
(dp6484
g562
(lp6485
(dp6486
g565
g6483
sg566
F0.169131368
sg567
VEducation
p6487
sassS'Attorneys,'
p6488
(dp6489
g548
(lp6490
(dp6491
g551
g6488
sg552
F0.247172073
sg553
VNone
p6492
sassS'Awards & Certifications \n'
p6493
(dp6494
g912
(lp6495
(dp6496
g915
g6493
sg916
F0.335539132
sg917
VNone
p6497
sassS'ACHIEVEMENTS \n'
p6498
(dp6499
g57
(lp6500
(dp6501
g60
g6498
sg61
F0.5962543
sg62
Vskills
p6502
sassS'Age : 21yrs \n'
p6503
(dp6504
g221
(lp6505
(dp6506
g224
g6503
sg225
F0.254734427
sg226
VNone
p6507
sassS'PERCENTAGE \n'
p6508
(dp6509
g2631
(lp6510
(dp6511
g2634
g6508
sg2635
F0.169131368
sg2636
VEducation
p6512
sassS'Publications:\n'
p6513
(dp6514
g2573
(lp6515
(dp6516
g2576
g6513
sg2577
F0.17198281
sg2578
Vskills
p6517
sassS'debate'
p6518
(dp6519
g75
(lp6520
(dp6521
g78
g6518
sg79
F0.169131368
sg80
VEducation
p6522
sassS'MOOT COURT ACHIEVEMENTS  \n'
p6523
(dp6524
g312
(lp6525
(dp6526
g315
g6523
sg316
F0.9996539
sg317
VmootCourtLaw
p6527
sassS', Delhi'
p6528
(dp6529
g39
(lp6530
(dp6531
g42
g6528
sg43
F0.3650702
sg44
VNone
p6532
sassS'    ARJIT PANDEY \n'
p6533
(dp6534
g257
(lp6535
(dp6536
g260
g6533
sg261
F0.189706534
sg262
VNone
p6537
sassS'Alma Mater \n'
p6538
(dp6539
g2436
(lp6540
(dp6541
g2439
g6538
sg2440
F0.189706534
sg2441
VNone
p6542
sassS'PROFESSIONAL SKILLS  \n'
p6543
(dp6544
g239
(lp6545
(dp6546
g242
g6543
sg243
F0.2996131
sg244
Vskills
p6547
sassS'CURRENT ADDRESS:  \n'
p6548
(dp6549
g469
(lp6550
(dp6551
g472
g6548
sg473
F0.193311363
sg474
VNone
p6552
sassS'Personal Details: \n'
p6553
(dp6554
g404
(lp6555
(dp6556
g407
g6553
sg408
F0.206850946
sg409
VNone
p6557
sassS'HUMAN RIGHTS LAW NETWORK, CALCUTTA  \n'
p6558
(dp6559
g12
(lp6560
(dp6561
g15
g6558
sg16
F0.4992319
sg17
VNone
p6562
sassS'[May, 2013: 3 weeks]'
p6563
(dp6564
g380
(lp6565
(dp6566
g383
g6563
sg384
F0.529717565
sg385
VNone
p6567
sassS'68.4% \n'
p6568
(dp6569
g57
(lp6570
(dp6571
g60
g6568
sg61
F0.387634128
sg62
VNone
p6572
sassS'The Times of India [November, 2013]\n'
p6573
(dp6574
g658
(lp6575
(dp6576
g661
g6573
sg662
F0.6871949
sg663
VNone
p6577
sassS'EDUCATION QUALIFICATION: \n'
p6578
(dp6579
g3
(lp6580
(dp6581
g6
g6578
sg7
F0.8895111
sg8
VEducation
p6582
sassS'Moot Court Committee'
p6583
(dp6584
g878
(lp6585
(dp6586
g881
g6583
sg882
F0.999350548
sg883
VmootCourtLaw
p6587
sassS'( taking'
p6588
(dp6589
g93
(lp6590
(dp6591
g96
g6588
sg97
F0.189706534
sg98
VNone
p6592
sassS'DATE OF BIRTH: 24.11.1995 \n'
p6593
(dp6594
g198
(lp6595
(dp6596
g201
g6593
sg202
F0.6769867
sg203
VNone
p6597
sassS'PERSONAL  \n'
p6598
(dp6599
g814
(lp6600
(dp6601
g817
g6598
sg818
F0.169131368
sg819
VEducation
p6602
sassS'MOOT COURT EXPERIENCE \n'
p6603
(dp6604
g248
(lp6605
(dp6606
g251
g6603
sg252
F0.9996801
sg253
VmootCourtLaw
p6607
sassS'AREA :'
p6608
(dp6609
g93
(lp6610
(dp6611
g96
g6608
sg97
F0.2663808
sg98
Vskills
p6612
sassS'Percentage / \n'
p6613
(dp6614
g138
(lp6615
(dp6616
g141
g6613
sg142
F0.158778936
sg143
VNone
p6617
sassS', presenting the case at courts'
p6618
(dp6619
g93
(lp6620
(dp6621
g96
g6618
sg97
F0.491409868
sg98
VNone
p6622
sassS'Skills  \n'
p6623
(dp6624
g1022
(lp6625
(dp6626
g1025
g6623
sg1026
F0.5364098
sg1027
Vskills
p6627
sassS'ADDITIONAL \n'
p6628
(dp6629
g562
(lp6630
(dp6631
g565
g6628
sg566
F0.764807761
sg567
VEducation
p6632
sassS'Vth Semester \n'
p6633
(dp6634
g404
(lp6635
(dp6636
g407
g6633
sg408
F0.246641457
sg409
VNone
p6637
sassS'SEMINARS \n'
p6638
(dp6639
g3086
(lp6640
(dp6641
g3089
g6638
sg3090
F0.191661969
sg3091
VEducation
p6642
sassS'in  National  Football \n'
p6643
(dp6644
g1842
(lp6645
(dp6646
g1845
g6643
sg1846
F0.2527038
sg1847
VNone
p6647
sassS'Charity Work\n'
p6648
(dp6649
g427
(lp6650
(dp6651
g430
g6648
sg431
F0.13249509
sg432
VNone
p6652
sassS'Pre-university Record \n'
p6653
(dp6654
g469
(lp6655
(dp6656
g472
g6653
sg473
F0.306786031
sg474
VNone
p6657
sassS'-Jure, New Delhi'
p6658
(dp6659
g39
(lp6660
(dp6661
g42
g6658
sg43
F0.587959468
sg44
VNone
p6662
sassS'Position, Organization \n'
p6663
(dp6664
g248
(lp6665
(dp6666
g251
g6663
sg252
F0.257088959
sg253
Vskills
p6667
sassS'Percentage \n'
p6668
(dp6669
g180
(lp6670
(dp6671
g183
g6668
sg184
F0.169131368
sg185
VEducation
p6672
sassS'weeks] \n'
p6673
(dp6674
g709
(lp6675
(dp6676
g712
g6673
sg713
F0.189706534
sg714
VNone
p6677
sassS'650-996-3122.'
p6678
(dp6679
g293
(lp6680
(dp6681
g296
g6678
sg297
F0.489359081
sg298
VNone
p6682
sassS'Darshna Gupta \n'
p6683
(dp6684
g3922
(lp6685
(dp6686
g3925
g6683
sg3926
F0.24598971
sg3927
VNone
p6687
sassS'V-IV B.L.S. LL.B.'
p6688
(dp6689
g93
(lp6690
(dp6691
g96
g6688
sg97
F0.744535446
sg98
VNone
p6692
sassS'Board/University  Marks \n'
p6693
(dp6694
g752
(lp6695
(dp6696
g755
g6693
sg756
F0.2866858
sg757
VNone
p6697
sassS'College/ Institute/ \n'
p6698
(dp6699
g138
(lp6700
(dp6701
g141
g6698
sg142
F0.299227685
sg143
VNone
p6702
sassS'WORK EXPERIENCE  \n'
p6703
(dp6704
g846
(lp6705
(dp6706
g849
g6703
sg850
F0.9486763
sg851
VworkExperience
p6707
sassS'July 24, 2015; 24 days]: \n'
p6708
(dp6709
g869
(lp6710
(dp6711
g872
g6708
sg873
F0.5658193
sg874
VNone
p6712
sassS'LANGUAGEs KNOWN \n'
p6713
(dp6714
g469
(lp6715
(dp6716
g472
g6713
sg473
F0.232874662
sg474
Vlanguages
p6717
sassS'Court (27'
p6718
(dp6719
g75
(lp6720
(dp6721
g78
g6718
sg79
F0.207657427
sg80
VNone
p6722
sassS'Extra Curricular Activities \n'
p6723
(dp6724
g1080
(lp6725
(dp6726
g1083
g6723
sg1084
F0.9435059
sg1085
VextraCurricular
p6727
sassS'WORKSHOPS AND CONFERENCES  \n'
p6728
(dp6729
g869
(lp6730
(dp6731
g872
g6728
sg873
F0.259775519
sg874
VNone
p6732
sassS'sumer Unity and Trust Society-'
p6733
(dp6734
g1629
(lp6735
(dp6736
g1632
g6733
sg1633
F0.410474241
sg1634
VNone
p6737
sassS'QUALIFICATION  Year  Board \n'
p6738
(dp6739
g257
(lp6740
(dp6741
g260
g6738
sg261
F0.3049299
sg262
VEducation
p6742
sassS'Significant Highlights \n'
p6743
(dp6744
g483
(lp6745
(dp6746
g486
g6743
sg487
F0.189706534
sg488
VNone
p6747
sassS'Debates: \n'
p6748
(dp6749
g3442
(lp6750
(dp6751
g3445
g6748
sg3446
F0.1699184
sg3447
Vskills
p6752
sassS'December 10,2014) \n'
p6753
(dp6754
g189
(lp6755
(dp6756
g192
g6753
sg193
F0.450055838
sg194
VNone
p6757
sassS'WORK EXPERIENCE \n'
p6758
(dp6759
g1137
(lp6760
(dp6761
g1140
g6758
sg1141
F0.9486763
sg1142
VworkExperience
p6762
sassS'INTERNSHIPS \n'
p6763
(dp6764
g48
(lp6765
(dp6766
g51
g6763
sg52
F0.269267142
sg53
VInternship
p6767
sassS'+91-9041066966. \n'
p6768
(dp6769
g525
(lp6770
(dp6771
g528
g6768
sg529
F0.480872929
sg530
VNone
p6772
sassS'Trilegal, Bombay  \n'
p6773
(dp6774
g846
(lp6775
(dp6776
g849
g6773
sg850
F0.417888552
sg851
VNone
p6777
sassS'ANWESHA DUTTA \n'
p6778
(dp6779
g860
(lp6780
(dp6781
g863
g6778
sg864
F0.239509
sg865
VNone
p6782
sassS'RESEARCH PAPERS PRESENTED: \n'
p6783
(dp6784
g221
(lp6785
(dp6786
g224
g6783
sg225
F0.99986887
sg226
VResearch
p6787
sassS'Interned at T'
p6788
(dp6789
g586
(lp6790
(dp6791
g589
g6788
sg590
F0.385233641
sg591
VNone
p6792
sassS'INTERNSHIPS\n'
p6793
(dp6794
g418
(lp6795
(dp6796
g421
g6793
sg422
F0.551209867
sg423
VInternship
p6797
sassS'Period:'
p6798
(dp6799
g548
(lp6800
(dp6801
g551
g6798
sg552
F0.221136019
sg553
Vskills
p6802
sassS'Board \n'
p6803
(dp6804
g284
(lp6805
(dp6806
g287
g6803
sg288
F0.191661969
sg289
VEducation
p6807
sassS'CO-CURRICULAR ACTIVITIES\n'
p6808
(dp6809
g418
(lp6810
(dp6811
g421
g6808
sg422
F0.9586167
sg423
VextraCurricular
p6812
sassS'DEEKSHA MALIK \n'
p6813
(dp6814
g102
(lp6815
(dp6816
g105
g6813
sg106
F0.189706534
sg107
VNone
p6817
sassS'Lakshmikumaran & Sridharan'
p6818
(dp6819
g548
(lp6820
(dp6821
g551
g6818
sg552
F0.6475758
sg553
VNone
p6822
sassS'examination \n'
p6823
(dp6824
g362
(lp6825
(dp6826
g365
g6823
sg366
F0.191661969
sg367
VEducation
p6827
sassS'ACADEMIC ACTIVITIES \n'
p6828
(dp6829
g1355
(lp6830
(dp6831
g1358
g6828
sg1359
F0.118127793
sg1360
VextraCurricular
p6832
sassS'EDUCATION\n'
p6833
(dp6834
g1540
(lp6835
(dp6836
g1543
g6833
sg1544
F0.9746962
sg1545
VEducation
p6837
sassS'87.8% \n'
p6838
(dp6839
g66
(lp6840
(dp6841
g69
g6838
sg70
F0.3891472
sg71
VNone
p6842
sassS'       Courses: \n'
p6843
(dp6844
g940
(lp6845
(dp6846
g943
g6843
sg944
F0.2040356
sg945
Vskills
p6847
sassS'Bachelor of Law\n'
p6848
(dp6849
g427
(lp6850
(dp6851
g430
g6848
sg431
F0.432277262
sg432
VNone
p6852
sassS'REFERENCES \n'
p6853
(dp6854
g48
(lp6855
(dp6856
g51
g6853
sg52
F0.169131368
sg53
VEducation
p6857
sassS'ADV. S.N. DAS, Bhubaneswar  \n'
p6858
(dp6859
g3086
(lp6860
(dp6861
g3089
g6858
sg3090
F0.676780939
sg3091
VNone
p6862
sassS'Dua Associates,'
p6863
(dp6864
g1629
(lp6865
(dp6866
g1632
g6863
sg1633
F0.3153464
sg1634
VNone
p6867
sassS'Interests: \n'
p6868
(dp6869
g860
(lp6870
(dp6871
g863
g6868
sg864
F0.255882829
sg865
VInterests
p6872
sassS'Ist Semester \n'
p6873
(dp6874
g404
(lp6875
(dp6876
g407
g6873
sg408
F0.189706534
sg409
VNone
p6877
sassS'CO-CURRICULAR ACTIVITIES:'
p6878
(dp6879
g1702
(lp6880
(dp6881
g1705
g6878
sg1706
F0.881091058
sg1707
VextraCurricular
p6882
sassS'AND DEBATE COMPETITIONS'
p6883
(dp6884
g595
(lp6885
(dp6886
g598
g6883
sg599
F0.259775519
sg600
VNone
p6887
sassS'November 2013 \n'
p6888
(dp6889
g846
(lp6890
(dp6891
g849
g6888
sg850
F0.189706534
sg851
VNone
p6892
sassS'May, 2016 \n'
p6893
(dp6894
g21
(lp6895
(dp6896
g24
g6893
sg25
F0.326001316
sg26
VNone
p6897
sassS'Educational Qualification'
p6898
(dp6899
g1031
(lp6900
(dp6901
g1034
g6898
sg1035
F0.9386836
sg1036
VEducation
p6902
sassS'Organizational Activities: \n'
p6903
(dp6904
g152
(lp6905
(dp6906
g155
g6903
sg156
F0.128522784
sg157
VNone
p6907
sassS'(Part-Time Internship)'
p6908
(dp6909
g1267
(lp6910
(dp6911
g1270
g6908
sg1271
F0.312724262
sg1272
VNone
p6912
sassS' Visakhapatnam, \n'
p6913
(dp6914
g469
(lp6915
(dp6916
g472
g6913
sg473
F0.2447362
sg474
VNone
p6917
sassS'RESEARCH EXPERIENCE \n'
p6918
(dp6919
g676
(lp6920
(dp6921
g679
g6918
sg680
F0.96442616
sg681
VResearch
p6922
sassS'University/Board \n'
p6923
(dp6924
g312
(lp6925
(dp6926
g315
g6923
sg316
F0.224415123
sg317
VNone
p6927
sassS'DEBARATI SENGUPTA \n'
p6928
(dp6929
g3546
(lp6930
(dp6931
g3549
g6928
sg3550
F0.6388425
sg3551
VNone
p6932
sassS'Chiranjivi Sharma \n'
p6933
(dp6934
g999
(lp6935
(dp6936
g1002
g6933
sg1003
F0.249248356
sg1004
VNone
p6937
sassS'Mentor: Mr. Atul Sharma\n'
p6938
(dp6939
g418
(lp6940
(dp6941
g421
g6938
sg422
F0.429982275
sg423
VNone
p6942
sassS'DARSHIL J. THAKKAR                  \n'
p6943
(dp6944
g2436
(lp6945
(dp6946
g2439
g6943
sg2440
F0.5936441
sg2441
VNone
p6947
sassS'Wadia Ghandy & Co., New Delhi,'
p6948
(dp6949
g293
(lp6950
(dp6951
g296
g6948
sg297
F0.7810178
sg298
VNone
p6952
sassS'rganizing'
p6953
(dp6954
g878
(lp6955
(dp6956
g881
g6953
sg882
F0.499958724
sg883
VNone
p6957
sassS'Objective:'
p6958
(dp6959
g501
(lp6960
(dp6961
g504
g6958
sg505
F0.182941064
sg506
Vskills
p6962
sassS'5.     Bhadrish S Raju ,Ahmedabad'
p6963
(dp6964
g1008
(lp6965
(dp6966
g1011
g6963
sg1012
F0.637934
sg1013
VNone
p6967
sassS'B.L.S. LL.B'
p6968
(dp6969
g93
(lp6970
(dp6971
g96
g6968
sg97
F0.68543905
sg98
VNone
p6972
sassS'MOOT COURT  \n'
p6973
(dp6974
g284
(lp6975
(dp6976
g287
g6973
sg288
F0.9999976
sg289
VmootCourtLaw
p6977
sassS'DR. K.K. GUPTA,'
p6978
(dp6979
g595
(lp6980
(dp6981
g598
g6978
sg599
F0.670134068
sg600
VNone
p6982
sassS'POSITIONS OF RESPONSIBILITY HELD  \n'
p6983
(dp6984
g2631
(lp6985
(dp6986
g2634
g6983
sg2635
F0.421606064
sg2636
VNone
p6987
sassS'EDUCATIONAL QUALIFICATION  \n'
p6988
(dp6989
g248
(lp6990
(dp6991
g251
g6988
sg252
F0.9386836
sg253
VEducation
p6992
sassS'Forum, Chandigarh \n'
p6993
(dp6994
g814
(lp6995
(dp6996
g817
g6993
sg818
F0.321644
sg819
VNone
p6997
sassS'AND WORK \n'
p6998
(dp6999
g1355
(lp7000
(dp7001
g1358
g6998
sg1359
F0.399435371
sg1360
VworkExperience
p7002
sassS'PERSONAL ACHIEVEMENTS AND HOBBIES'
p7003
(dp7004
g501
(lp7005
(dp7006
g504
g7003
sg505
F0.482488036
sg506
Vskills
p7007
sassS'Curriculum Vitae \n'
p7008
(dp7009
g362
(lp7010
(dp7011
g365
g7008
sg366
F0.186773553
sg367
VNone
p7012
sassS'rounds) held at RGNUL Patiala. \n'
p7013
(dp7014
g695
(lp7015
(dp7016
g698
g7013
sg699
F0.571208
sg700
VNone
p7017
sassS'CO-CIRCULLAR ACTIVITIES:  \n'
p7018
(dp7019
g1215
(lp7020
(dp7021
g1218
g7018
sg1219
F0.881091058
sg1220
VextraCurricular
p7022
sassS'EXTRA CURRICULAR ACTIVITIES'
p7023
(dp7024
g75
(lp7025
(dp7026
g78
g7023
sg79
F0.9009125
sg80
VextraCurricular
p7027
sassS'PERSONAL INFORMATION      \n'
p7028
(dp7029
g248
(lp7030
(dp7031
g251
g7028
sg252
F0.189706534
sg253
VNone
p7032
sassS'(%)/marks \n'
p7033
(dp7034
g30
(lp7035
(dp7036
g33
g7033
sg34
F0.3452597
sg35
VNone
p7037
sassS'University of Michigan'
p7038
(dp7039
g380
(lp7040
(dp7041
g383
g7038
sg384
F0.425793469
sg385
VNone
p7042
sassS'TRAINING: \n'
p7043
(dp7044
g30
(lp7045
(dp7046
g33
g7043
sg34
F0.228551686
sg35
Vskills
p7047
sassS'Conference:  \n'
p7048
(dp7049
g3546
(lp7050
(dp7051
g3549
g7048
sg3550
F0.22133638
sg3551
Vskills
p7052
sassS'Work Experience and Internships \n'
p7053
(dp7054
g348
(lp7055
(dp7056
g351
g7053
sg352
F0.357183069
sg353
VworkExperience
p7057
sassS'COLLEGE LEVEL: JESUS AND MARY COLLEGE'
p7058
(dp7059
g501
(lp7060
(dp7061
g504
g7058
sg505
F0.4714728
sg506
VNone
p7062
sassS'Jani & Co. Solicitors and Advocates'
p7063
(dp7064
g39
(lp7065
(dp7066
g42
g7063
sg43
F0.55379355
sg44
VNone
p7067
sassS'SCHOOL, \n'
p7068
(dp7069
g66
(lp7070
(dp7071
g69
g7068
sg70
F0.356901228
sg71
VNone
p7072
sassS'Rajasthan) (May, 2013) \n'
p7073
(dp7074
g1089
(lp7075
(dp7076
g1092
g7073
sg1093
F0.52885747
sg1094
VNone
p7077
sassS'WORK EXPERIENCE   \n'
p7078
(dp7079
g129
(lp7080
(dp7081
g132
g7078
sg133
F0.9486763
sg134
VworkExperience
p7082
sassS'Zehn Advocates, Bangalore   \n'
p7083
(dp7084
g837
(lp7085
(dp7086
g840
g7083
sg841
F0.4721101
sg842
VNone
p7087
sassS'it  Elements \n'
p7088
(dp7089
g469
(lp7090
(dp7091
g472
g7088
sg473
F0.186773553
sg474
VNone
p7092
sassS'Year(s) \n'
p7093
(dp7094
g138
(lp7095
(dp7096
g141
g7093
sg142
F0.319414139
sg143
VNone
p7097
sassS'PROFESSIONAL EXPERIENCE\n'
p7098
(dp7099
g48
(lp7100
(dp7101
g51
g7098
sg52
F0.284860343
sg53
VworkExperience
p7102
sassS'DARPAKSHI SHAH \n'
p7103
(dp7104
S'intents'
p7105
(lp7106
(dp7107
S'query'
p7108
g7103
sS'score'
p7109
F0.251561731
sS'intent'
p7110
VNone
p7111
sassS'AZB & Partners'
p7112
(dp7113
g595
(lp7114
(dp7115
g598
g7112
sg599
F0.437501758
sg600
VNone
p7116
sassS'[May-June, 2015: 4 Weeks] \n'
p7117
(dp7118
g171
(lp7119
(dp7120
g174
g7117
sg175
F0.5759217
sg176
VNone
p7121
sassS'AND WORK  \n'
p7122
(dp7123
g12
(lp7124
(dp7125
g15
g7122
sg16
F0.399435371
sg17
VworkExperience
p7126
sassS'Achievements, \n'
p7127
(dp7128
g492
(lp7129
(dp7130
g495
g7127
sg496
F0.413884133
sg497
Vskills
p7131
sassS'DIVYA  MIRLAY \n'
p7132
(dp7133
S'intents'
p7134
(lp7135
(dp7136
S'query'
p7137
g7132
sS'score'
p7138
F0.244230449
sS'intent'
p7139
VNone
p7140
sassS'Pursuing  3rd  year  of  the \n'
p7141
(dp7142
g230
(lp7143
(dp7144
g233
g7141
sg234
F0.485973984
sg235
VNone
p7145
sassS'Name: DIVYA GUPTA'
p7146
(dp7147
g1419
(lp7148
(dp7149
g1422
g7146
sg1423
F0.278295279
sg1424
VNone
p7150
sassS'December, 2015) \n'
p7151
(dp7152
g189
(lp7153
(dp7154
g192
g7151
sg193
F0.387548685
sg194
VNone
p7155
sassS'Languages known: \n'
p7156
(dp7157
g404
(lp7158
(dp7159
g407
g7156
sg408
F0.180700183
sg409
Vlanguages
p7160
sassS'Additional Courses  \n'
p7161
(dp7162
g348
(lp7163
(dp7164
g351
g7161
sg352
F0.241642311
sg353
VEducation
p7165
sassS', Mumbai'
p7166
(dp7167
g3338
(lp7168
(dp7169
g3341
g7166
sg3342
F0.3767168
sg3343
VNone
p7170
sassS'R.K Law Offices , New Delhi \n'
p7171
(dp7172
g912
(lp7173
(dp7174
g915
g7171
sg916
F0.701811254
sg917
VNone
p7175
sassS'ACADEMIC BACKGROUND \n'
p7176
(dp7177
g138
(lp7178
(dp7179
g141
g7176
sg142
F0.189706534
sg143
VNone
p7180
sassS'ANURAG GUPTA \n'
p7181
(dp7182
g21
(lp7183
(dp7184
g24
g7181
sg25
F0.189706534
sg26
VNone
p7185
sassS'Conferences \n'
p7186
(dp7187
g940
(lp7188
(dp7189
g943
g7186
sg944
F0.169131368
sg945
VEducation
p7190
sassS'SSC (PCM) \n'
p7191
(dp7192
g404
(lp7193
(dp7194
g407
g7191
sg408
F0.324501246
sg409
VNone
p7195
sassS' Dua Associates, New \n'
p7196
(dp7197
g57
(lp7198
(dp7199
g60
g7196
sg61
F0.384103984
sg62
VNone
p7200
sassS'A R E A S   O F  I N T E R E S T  \n'
p7201
(dp7202
g940
(lp7203
(dp7204
g943
g7201
sg944
F0.7229695
sg945
VNone
p7205
sassS'Contact No: (217) 265-5274 \n'
p7206
(dp7207
g21
(lp7208
(dp7209
g24
g7206
sg25
F0.5340827
sg26
VNone
p7210
sassS'Other Qualification  \n'
p7211
(dp7212
g362
(lp7213
(dp7214
g365
g7211
sg366
F0.6235628
sg367
VEducation
p7215
sassS'MOOT COURT ACHIEVEMENTS \n'
p7216
(dp7217
g1950
(lp7218
(dp7219
g1953
g7216
sg1954
F0.9996539
sg1955
VmootCourtLaw
p7220
sassS'[May, 2016: 4 Weeks]  \n'
p7221
(dp7222
g207
(lp7223
(dp7224
g210
g7221
sg211
F0.52375567
sg212
VNone
p7225
sassS'ACADEMIC AWARDS & ACHIEVEMENTS \n'
p7226
(dp7227
g676
(lp7228
(dp7229
g679
g7226
sg680
F0.335524648
sg681
VNone
p7230
sassS'November 2016'
p7231
(dp7232
g548
(lp7233
(dp7234
g551
g7231
sg552
F0.189706534
sg553
VNone
p7235
sassS' Hindi, English, Odiya and Nepali \n'
p7236
(dp7237
g469
(lp7238
(dp7239
g472
g7236
sg473
F0.619586
sg474
VNone
p7240
sassS'ACADEMIC BACKGROUND:  \n'
p7241
(dp7242
g198
(lp7243
(dp7244
g201
g7241
sg202
F0.206360489
sg203
VNone
p7245
sassS'         May 2016  \n'
p7246
(dp7247
g837
(lp7248
(dp7249
g840
g7246
sg841
F0.189706534
sg842
VNone
p7250
sassS'EDUCATION'
p7251
(dp7252
g878
(lp7253
(dp7254
g881
g7251
sg882
F0.9746962
sg883
VEducation
p7255
sassS'ANUSHA PERI \n'
p7256
(dp7257
g2977
(lp7258
(dp7259
g2980
g7256
sg2981
F0.189706534
sg2982
VNone
p7260
sassS'Northern Coalfields'
p7261
(dp7262
g75
(lp7263
(dp7264
g78
g7261
sg79
F0.256003618
sg80
VNone
p7265
sassS'INTERNSHIPS AND EXPERIENCE \n'
p7266
(dp7267
g823
(lp7268
(dp7269
g826
g7266
sg827
F0.513415754
sg828
VInternship
p7270
sassS'WIPO Summer School on IPR'
p7271
(dp7272
g878
(lp7273
(dp7274
g881
g7271
sg882
F0.5794822
sg883
VNone
p7275
sassS'APPLICATION FOR \n'
p7276
(dp7277
g1215
(lp7278
(dp7279
g1218
g7276
sg1219
F0.189706534
sg1220
VNone
p7280
sassS'OBJECTIVES:'
p7281
(dp7282
g1008
(lp7283
(dp7284
g1011
g7281
sg1012
F0.170168281
sg1013
Vskills
p7285
sassS'   [Part-Time Internship] \n'
p7286
(dp7287
g814
(lp7288
(dp7289
g817
g7286
sg818
F0.329433024
sg819
VNone
p7290
sassS'ATISHA JAIN \n'
p7291
(dp7292
g330
(lp7293
(dp7294
g333
g7291
sg334
F0.245135039
sg335
VNone
p7295
sassS'EXTRA CIRRICULAR ACTIVITIES \n'
p7296
(dp7297
g3220
(lp7298
(dp7299
g3223
g7296
sg3224
F0.9009125
sg3225
VextraCurricular
p7300
sassS'AWARDS - SPORTS AND OTHERS \n'
p7301
(dp7302
g752
(lp7303
(dp7304
g755
g7301
sg756
F0.382111341
sg757
VNone
p7305
sassS'EDUCATIONAL QUALIFICATIONS: \n'
p7306
(dp7307
g171
(lp7308
(dp7309
g174
g7306
sg175
F0.8165061
sg176
VEducation
p7310
sassS'akshit'
p7311
(dp7312
g380
(lp7313
(dp7314
g383
g7311
sg384
F0.499958724
sg385
VNone
p7315
sassS'Bombay High Court \n'
p7316
(dp7317
g446
(lp7318
(dp7319
g449
g7316
sg450
F0.207665846
sg451
VNone
p7320
sassS'International Law \n'
p7321
(dp7322
g469
(lp7323
(dp7324
g472
g7321
sg473
F0.231466338
sg474
VNone
p7325
sassS'INTERNSHIPS'
p7326
(dp7327
g1008
(lp7328
(dp7329
g1011
g7326
sg1012
F0.269267142
sg1013
VInternship
p7330
sassS'AZB and Partners, Mumbai  \n'
p7331
(dp7332
g912
(lp7333
(dp7334
g915
g7331
sg916
F0.599146366
sg917
VNone
p7335
sassS'Transfer \n'
p7336
(dp7337
g230
(lp7338
(dp7339
g233
g7336
sg234
F0.191661969
sg235
VEducation
p7340
sassS'SUMMER INTERNSHIP'
p7341
(dp7342
g501
(lp7343
(dp7344
g504
g7341
sg505
F0.397609621
sg506
VInternship
p7345
sassS'3.  Firm: iPleaders \n'
p7346
(dp7347
g138
(lp7348
(dp7349
g141
g7346
sg142
F0.4533711
sg143
VNone
p7350
sassS'Lucknow Conclave,2014, IIM Lucknow. \n'
p7351
(dp7352
g695
(lp7353
(dp7354
g698
g7351
sg699
F0.619134843
sg700
VNone
p7355
sassS'ORGANIZATIONAL EXPERIENCE: \n'
p7356
(dp7357
g171
(lp7358
(dp7359
g174
g7356
sg175
F0.152484223
sg176
VworkExperience
p7360
sassS'School/College attended \n'
p7361
(dp7362
g362
(lp7363
(dp7364
g365
g7361
sg366
F0.353221685
sg367
VNone
p7365
sassS'DHRUVI AMRISH MEHTA'
p7366
(dp7367
g1702
(lp7368
(dp7369
g1705
g7366
sg1706
F0.300469935
sg1707
VNone
p7370
sassS'CERTIFICATE COURSES  \n'
p7371
(dp7372
g2544
(lp7373
(dp7374
g2547
g7371
sg2548
F0.186773553
sg2549
VNone
p7375
sassS'HOBBIES \n'
p7376
(dp7377
g2631
(lp7378
(dp7379
g2634
g7376
sg2635
F0.533040643
sg2636
Vskills
p7380
sassS'QUALIFICATION \n'
p7381
(dp7382
g239
(lp7383
(dp7384
g242
g7381
sg243
F0.919781744
sg244
VEducation
p7385
sassS'IV Semester'
p7386
(dp7387
g586
(lp7388
(dp7389
g589
g7386
sg590
F0.189706534
sg591
VNone
p7390
sassS'QUALIFICATION :'
p7391
(dp7392
g93
(lp7393
(dp7394
g96
g7391
sg97
F0.7173412
sg98
VEducation
p7395
sassS'Chander M. Lall \n'
p7396
(dp7397
g912
(lp7398
(dp7399
g915
g7396
sg916
F0.7316286
sg917
VNone
p7400
sassS'DEEPIKA BAHIRWANI  \n'
p7401
(dp7402
g2631
(lp7403
(dp7404
g2634
g7401
sg2635
F0.248716384
sg2636
VNone
p7405
sassS'AUTHORITY \n'
p7406
(dp7407
g198
(lp7408
(dp7409
g201
g7406
sg202
F0.191661969
sg203
VEducation
p7410
sassS'HOBBIES &'
p7411
(dp7412
g93
(lp7413
(dp7414
g96
g7411
sg97
F0.299699038
sg98
Vskills
p7415
sassS'EDUCATIONAL QUALIFICATION\n'
p7416
(dp7417
g362
(lp7418
(dp7419
g365
g7416
sg366
F0.8987922
sg367
VEducation
p7420
sassS'Work Experience: \n'
p7421
(dp7422
g257
(lp7423
(dp7424
g260
g7421
sg261
F0.8951147
sg262
VworkExperience
p7425
sassS'DIKSHA SINGH\n'
p7426
(dp7427
g658
(lp7428
(dp7429
g661
g7426
sg662
F0.189706534
sg663
VNone
p7430
sassS'Personal Profile:'
p7431
(dp7432
g1031
(lp7433
(dp7434
g1034
g7431
sg1035
F0.157003134
sg1036
VNone
p7435
sass.